///////////////////////////////////////////////////////////////////////////////
//                                                                            /
// IAR C/C++ Compiler V8.10.1.40194/W32 for 8051        19/May/2018  16:20:31 /
// Copyright 2004-2011 IAR Systems AB.                                        /
//                                                                            /
//    Core               =  plain                                             /
//    Code model         =  banked                                            /
//    Data model         =  large                                             /
//    Calling convention =  xdata reentrant                                   /
//    Constant location  =  data_rom                                          /
//    Dptr setup         =  1,16                                              /
//    Source file        =  E:\梁宇\项目2\zigbee读取MPU6050                   /
//                          WIN\ZStack-CC2530-2.5.1a-加速度传感器\Projects\zs /
//                          tack\Samples\SampleApp\Source\mma8451.c           /
//    Command line       =  -f "E:\梁宇\项目2\zigbee读取MPU6050               /
//                          WIN\ZStack-CC2530-2.5.1a-加速度传感器\Projects\zs /
//                          tack\Samples\SampleApp\CC2530DB\..\..\..\Tools\CC /
//                          2530DB\f8wEndev.cfg" (-DCPU32MHZ                  /
//                          -DROOT=__near_func -DMAC_CFG_TX_DATA_MAX=3        /
//                          -DMAC_CFG_TX_MAX=6 -DMAC_CFG_RX_MAX=3) -f         /
//                          "E:\梁宇\项目2\zigbee读取MPU6050                  /
//                          WIN\ZStack-CC2530-2.5.1a-加速度传感器\Projects\zs /
//                          tack\Samples\SampleApp\CC2530DB\..\..\..\Tools\CC /
//                          2530DB\f8wConfig.cfg" (-DZIGBEEPRO -DSECURE=0     /
//                          -DZG_SECURE_DYNAMIC=0 -DREFLECTOR                 /
//                          -DDEFAULT_CHANLIST=0x00000800                     /
//                          -DZDAPP_CONFIG_PAN_ID=0xF000                      /
//                          -DNWK_START_DELAY=100 -DEXTENDED_JOINING_RANDOM_M /
//                          ASK=0x007F -DBEACON_REQUEST_DELAY=100             /
//                          -DBEACON_REQ_DELAY_MASK=0x00FF                    /
//                          -DLINK_STATUS_JITTER_MASK=0x007F                  /
//                          -DROUTE_EXPIRY_TIME=30 -DAPSC_ACK_WAIT_DURATION_P /
//                          OLLED=3000 -DNWK_INDIRECT_MSG_TIMEOUT=7           /
//                          -DMAX_RREQ_ENTRIES=8 -DAPSC_MAX_FRAME_RETRIES=3   /
//                          -DNWK_MAX_DATA_RETRIES=2                          /
//                          -DMAX_POLL_FAILURE_RETRIES=2 -DMAX_BCAST=9        /
//                          -DAPS_MAX_GROUPS=16 -DMAX_RTG_ENTRIES=40          /
//                          -DNWK_MAX_BINDING_ENTRIES=4                       /
//                          -DMAX_BINDING_CLUSTER_IDS=4                       /
//                          "-DDEFAULT_KEY={0x01, 0x03, 0x05, 0x07, 0x09,     /
//                          0x0B, 0x0D, 0x0F, 0x00, 0x02, 0x04, 0x06, 0x08,   /
//                          0x0A, 0x0C, 0x0D}" -DMAC_MAX_FRAME_SIZE=116       /
//                          -DZDNWKMGR_MIN_TRANSMISSIONS=20 "-DCONST=const    /
//                          __code" -DGENERIC=__generic                       /
//                          -DRFD_RCVC_ALWAYS_ON=FALSE -DPOLL_RATE=1000       /
//                          -DQUEUED_POLL_RATE=100 -DRESPONSE_POLL_RATE=100)  /
//                          -DREJOIN_POLL_RATE=440 "E:\梁宇\项目2\zigbee读取M /
//                          PU6050 WIN\ZStack-CC2530-2.5.1a-加速度传感器\Proj /
//                          ects\zstack\Samples\SampleApp\Source\mma8451.c"   /
//                          -D NWK_AUTO_POLL -D ZTOOL_P1 -D MT_TASK -D        /
//                          MT_SYS_FUNC -D MT_ZDO_FUNC -D                     /
//                          LCD_SUPPORTED=DEBUG -lC                           /
//                          "E:\梁宇\项目2\zigbee读取MPU6050                  /
//                          WIN\ZStack-CC2530-2.5.1a-加速度传感器\Projects\zs /
//                          tack\Samples\SampleApp\CC2530DB\EndDeviceEB\List\ /
//                          " -lA "E:\梁宇\项目2\zigbee读取MPU6050            /
//                          WIN\ZStack-CC2530-2.5.1a-加速度传感器\Projects\zs /
//                          tack\Samples\SampleApp\CC2530DB\EndDeviceEB\List\ /
//                          " --diag_suppress Pe001,Pa010 -o                  /
//                          "E:\梁宇\项目2\zigbee读取MPU6050                  /
//                          WIN\ZStack-CC2530-2.5.1a-加速度传感器\Projects\zs /
//                          tack\Samples\SampleApp\CC2530DB\EndDeviceEB\Obj\" /
//                           -e --no_code_motion --debug --core=plain         /
//                          --dptr=16,1 --data_model=large                    /
//                          --code_model=banked --calling_convention=xdata_re /
//                          entrant --place_constants=data_rom                /
//                          --nr_virtual_regs 16 -I                           /
//                          "E:\梁宇\项目2\zigbee读取MPU6050                  /
//                          WIN\ZStack-CC2530-2.5.1a-加速度传感器\Projects\zs /
//                          tack\Samples\SampleApp\CC2530DB\" -I              /
//                          "E:\梁宇\项目2\zigbee读取MPU6050                  /
//                          WIN\ZStack-CC2530-2.5.1a-加速度传感器\Projects\zs /
//                          tack\Samples\SampleApp\CC2530DB\..\Source\" -I    /
//                          "E:\梁宇\项目2\zigbee读取MPU6050                  /
//                          WIN\ZStack-CC2530-2.5.1a-加速度传感器\Projects\zs /
//                          tack\Samples\SampleApp\CC2530DB\..\..\..\ZMain\TI /
//                          2530DB\" -I "E:\梁宇\项目2\zigbee读取MPU6050      /
//                          WIN\ZStack-CC2530-2.5.1a-加速度传感器\Projects\zs /
//                          tack\Samples\SampleApp\CC2530DB\..\..\..\..\..\Co /
//                          mponents\hal\include\" -I                         /
//                          "E:\梁宇\项目2\zigbee读取MPU6050                  /
//                          WIN\ZStack-CC2530-2.5.1a-加速度传感器\Projects\zs /
//                          tack\Samples\SampleApp\CC2530DB\..\..\..\..\..\Co /
//                          mponents\hal\target\CC2530EB\" -I                 /
//                          "E:\梁宇\项目2\zigbee读取MPU6050                  /
//                          WIN\ZStack-CC2530-2.5.1a-加速度传感器\Projects\zs /
//                          tack\Samples\SampleApp\CC2530DB\..\..\..\..\..\Co /
//                          mponents\mac\include\" -I                         /
//                          "E:\梁宇\项目2\zigbee读取MPU6050                  /
//                          WIN\ZStack-CC2530-2.5.1a-加速度传感器\Projects\zs /
//                          tack\Samples\SampleApp\CC2530DB\..\..\..\..\..\Co /
//                          mponents\mac\high_level\" -I                      /
//                          "E:\梁宇\项目2\zigbee读取MPU6050                  /
//                          WIN\ZStack-CC2530-2.5.1a-加速度传感器\Projects\zs /
//                          tack\Samples\SampleApp\CC2530DB\..\..\..\..\..\Co /
//                          mponents\mac\low_level\srf04\" -I                 /
//                          "E:\梁宇\项目2\zigbee读取MPU6050                  /
//                          WIN\ZStack-CC2530-2.5.1a-加速度传感器\Projects\zs /
//                          tack\Samples\SampleApp\CC2530DB\..\..\..\..\..\Co /
//                          mponents\mac\low_level\srf04\single_chip\" -I     /
//                          "E:\梁宇\项目2\zigbee读取MPU6050                  /
//                          WIN\ZStack-CC2530-2.5.1a-加速度传感器\Projects\zs /
//                          tack\Samples\SampleApp\CC2530DB\..\..\..\..\..\Co /
//                          mponents\mt\" -I "E:\梁宇\项目2\zigbee读取MPU6050 /
//                           WIN\ZStack-CC2530-2.5.1a-加速度传感器\Projects\z /
//                          stack\Samples\SampleApp\CC2530DB\..\..\..\..\..\C /
//                          omponents\osal\include\" -I                       /
//                          "E:\梁宇\项目2\zigbee读取MPU6050                  /
//                          WIN\ZStack-CC2530-2.5.1a-加速度传感器\Projects\zs /
//                          tack\Samples\SampleApp\CC2530DB\..\..\..\..\..\Co /
//                          mponents\services\saddr\" -I                      /
//                          "E:\梁宇\项目2\zigbee读取MPU6050                  /
//                          WIN\ZStack-CC2530-2.5.1a-加速度传感器\Projects\zs /
//                          tack\Samples\SampleApp\CC2530DB\..\..\..\..\..\Co /
//                          mponents\services\sdata\" -I                      /
//                          "E:\梁宇\项目2\zigbee读取MPU6050                  /
//                          WIN\ZStack-CC2530-2.5.1a-加速度传感器\Projects\zs /
//                          tack\Samples\SampleApp\CC2530DB\..\..\..\..\..\Co /
//                          mponents\stack\af\" -I "E:\梁宇\项目2\zigbee读取M /
//                          PU6050 WIN\ZStack-CC2530-2.5.1a-加速度传感器\Proj /
//                          ects\zstack\Samples\SampleApp\CC2530DB\..\..\..\. /
//                          .\..\Components\stack\nwk\" -I                    /
//                          "E:\梁宇\项目2\zigbee读取MPU6050                  /
//                          WIN\ZStack-CC2530-2.5.1a-加速度传感器\Projects\zs /
//                          tack\Samples\SampleApp\CC2530DB\..\..\..\..\..\Co /
//                          mponents\stack\sapi\" -I                          /
//                          "E:\梁宇\项目2\zigbee读取MPU6050                  /
//                          WIN\ZStack-CC2530-2.5.1a-加速度传感器\Projects\zs /
//                          tack\Samples\SampleApp\CC2530DB\..\..\..\..\..\Co /
//                          mponents\stack\sec\" -I                           /
//                          "E:\梁宇\项目2\zigbee读取MPU6050                  /
//                          WIN\ZStack-CC2530-2.5.1a-加速度传感器\Projects\zs /
//                          tack\Samples\SampleApp\CC2530DB\..\..\..\..\..\Co /
//                          mponents\stack\sys\" -I                           /
//                          "E:\梁宇\项目2\zigbee读取MPU6050                  /
//                          WIN\ZStack-CC2530-2.5.1a-加速度传感器\Projects\zs /
//                          tack\Samples\SampleApp\CC2530DB\..\..\..\..\..\Co /
//                          mponents\stack\zdo\" -I                           /
//                          "E:\梁宇\项目2\zigbee读取MPU6050                  /
//                          WIN\ZStack-CC2530-2.5.1a-加速度传感器\Projects\zs /
//                          tack\Samples\SampleApp\CC2530DB\..\..\..\..\..\Co /
//                          mponents\zmac\" -I "E:\梁宇\项目2\zigbee读取MPU60 /
//                          50 WIN\ZStack-CC2530-2.5.1a-加速度传感器\Projects /
//                          \zstack\Samples\SampleApp\CC2530DB\..\..\..\..\.. /
//                          \Components\zmac\f8w\" -Ohz --require_prototypes  /
//    List file          =  E:\梁宇\项目2\zigbee读取MPU6050                   /
//                          WIN\ZStack-CC2530-2.5.1a-加速度传感器\Projects\zs /
//                          tack\Samples\SampleApp\CC2530DB\EndDeviceEB\List\ /
//                          mma8451.s51                                       /
//                                                                            /
//                                                                            /
///////////////////////////////////////////////////////////////////////////////

        NAME mma8451

        RTMODEL "__SystemLibrary", "CLib"
        RTMODEL "__calling_convention", "xdata_reentrant"
        RTMODEL "__code_model", "banked"
        RTMODEL "__core", "plain"
        RTMODEL "__data_model", "large"
        RTMODEL "__dptr_size", "16"
        RTMODEL "__extended_stack", "disabled"
        RTMODEL "__location_for_constants", "data"
        RTMODEL "__number_of_dptrs", "1"
        RTMODEL "__rt_version", "1"

        RSEG DOVERLAY:DATA:NOROOT(0)
        RSEG IOVERLAY:IDATA:NOROOT(0)
        RSEG ISTACK:IDATA:NOROOT(0)
        RSEG PSTACK:XDATA:NOROOT(0)
        RSEG XSTACK:XDATA:NOROOT(0)

        EXTERN ?ALLOC_XSTACK8
        EXTERN ?BANKED_ENTER_XDATA
        EXTERN ?BANKED_LEAVE_XDATA
        EXTERN ?BDISPATCH
        EXTERN ?BRET
        EXTERN ?DEALLOC_XSTACK8
        EXTERN ?S_DIV_MOD
        EXTERN ?V0
        EXTERN ?XSP
        EXTERN ?XSTACK_DISP0_8
        EXTERN __INIT_XDATA_Z

        PUBLIC ??ALLInit?relay
        FUNCTION ??ALLInit?relay,0203H
        PUBLIC ??I2C_RecvACK?relay
        FUNCTION ??I2C_RecvACK?relay,0203H
        PUBLIC ??I2C_RecvByte?relay
        FUNCTION ??I2C_RecvByte?relay,0203H
        PUBLIC ??I2C_SendACK?relay
        FUNCTION ??I2C_SendACK?relay,0203H
        PUBLIC ??I2C_SendByte?relay
        FUNCTION ??I2C_SendByte?relay,0203H
        PUBLIC ??I2C_Start?relay
        FUNCTION ??I2C_Start?relay,0203H
        PUBLIC ??I2C_Stop?relay
        FUNCTION ??I2C_Stop?relay,0203H
        PUBLIC ??InitMPU6050?relay
        FUNCTION ??InitMPU6050?relay,0203H
        PUBLIC ??Init_IO?relay
        FUNCTION ??Init_IO?relay,0203H
        PUBLIC ??Multiple_read_MPU6050?relay
        FUNCTION ??Multiple_read_MPU6050?relay,0203H
        PUBLIC ??ReadSDA?relay
        FUNCTION ??ReadSDA?relay,0203H
        PUBLIC ??Single_ReadI2C?relay
        FUNCTION ??Single_ReadI2C?relay,0203H
        PUBLIC ??Single_WriteI2C?relay
        FUNCTION ??Single_WriteI2C?relay,0203H
        PUBLIC ??WriteSCL_0?relay
        FUNCTION ??WriteSCL_0?relay,0203H
        PUBLIC ??WriteSCL_1?relay
        FUNCTION ??WriteSCL_1?relay,0203H
        PUBLIC ??WriteSDA_0?relay
        FUNCTION ??WriteSDA_0?relay,0203H
        PUBLIC ??WriteSDA_1?relay
        FUNCTION ??WriteSDA_1?relay,0203H
        PUBLIC ??delay_usec?relay
        FUNCTION ??delay_usec?relay,0203H
        PUBLIC ??type_change?relay
        FUNCTION ??type_change?relay,0203H
        PUBLIC ALLInit
        FUNCTION ALLInit,021203H
        ARGFRAME XSTACK, 0, STACK
        LOCFRAME ISTACK, 2, STACK
        PUBLIC I2C_RecvACK
        FUNCTION I2C_RecvACK,021203H
        ARGFRAME XSTACK, 9, STACK
        ARGFRAME IOVERLAY, 0, STATIC
        ARGFRAME DOVERLAY, 0, STATIC
        LOCFRAME ISTACK, 2, STACK
        PUBLIC I2C_RecvByte
        FUNCTION I2C_RecvByte,021203H
        ARGFRAME XSTACK, 9, STACK
        ARGFRAME IOVERLAY, 0, STATIC
        ARGFRAME DOVERLAY, 0, STATIC
        LOCFRAME XSTACK, 9, STACK
        PUBLIC I2C_SendACK
        FUNCTION I2C_SendACK,021203H
        ARGFRAME XSTACK, 9, STACK
        ARGFRAME IOVERLAY, 0, STATIC
        ARGFRAME DOVERLAY, 0, STATIC
        LOCFRAME XSTACK, 9, STACK
        PUBLIC I2C_SendByte
        FUNCTION I2C_SendByte,021203H
        ARGFRAME XSTACK, 9, STACK
        ARGFRAME IOVERLAY, 0, STATIC
        ARGFRAME DOVERLAY, 0, STATIC
        LOCFRAME XSTACK, 9, STACK
        PUBLIC I2C_Start
        FUNCTION I2C_Start,021203H
        ARGFRAME XSTACK, 9, STACK
        ARGFRAME IOVERLAY, 0, STATIC
        ARGFRAME DOVERLAY, 0, STATIC
        LOCFRAME ISTACK, 2, STACK
        PUBLIC I2C_Stop
        FUNCTION I2C_Stop,021203H
        ARGFRAME XSTACK, 9, STACK
        ARGFRAME IOVERLAY, 0, STATIC
        ARGFRAME DOVERLAY, 0, STATIC
        LOCFRAME ISTACK, 2, STACK
        PUBLIC InitMPU6050
        FUNCTION InitMPU6050,021203H
        ARGFRAME XSTACK, 0, STACK
        ARGFRAME IOVERLAY, 0, STATIC
        ARGFRAME DOVERLAY, 0, STATIC
        LOCFRAME ISTACK, 2, STACK
        PUBLIC Init_IO
        FUNCTION Init_IO,0203H
        ARGFRAME XSTACK, 0, STACK
        ARGFRAME IOVERLAY, 0, STATIC
        ARGFRAME DOVERLAY, 0, STATIC
        PUBLIC Multiple_read_MPU6050
        FUNCTION Multiple_read_MPU6050,021203H
        ARGFRAME XSTACK, 0, STACK
        LOCFRAME ISTACK, 1, STACK
        LOCFRAME XSTACK, 34, STACK
        PUBWEAK P0DIR
        PUBWEAK P0SEL
        PUBLIC ReadSDA
        FUNCTION ReadSDA,0203H
        ARGFRAME XSTACK, 0, STACK
        PUBLIC Single_ReadI2C
        FUNCTION Single_ReadI2C,021203H
        ARGFRAME XSTACK, 34, STACK
        ARGFRAME IOVERLAY, 0, STATIC
        ARGFRAME DOVERLAY, 0, STATIC
        LOCFRAME XSTACK, 9, STACK
        PUBLIC Single_WriteI2C
        FUNCTION Single_WriteI2C,021203H
        ARGFRAME XSTACK, 0, STACK
        ARGFRAME IOVERLAY, 0, STATIC
        ARGFRAME DOVERLAY, 0, STATIC
        LOCFRAME XSTACK, 9, STACK
        PUBLIC WriteSCL_0
        FUNCTION WriteSCL_0,0203H
        ARGFRAME XSTACK, 9, STACK
        ARGFRAME IOVERLAY, 0, STATIC
        ARGFRAME DOVERLAY, 0, STATIC
        PUBLIC WriteSCL_1
        FUNCTION WriteSCL_1,0203H
        ARGFRAME XSTACK, 9, STACK
        ARGFRAME IOVERLAY, 0, STATIC
        ARGFRAME DOVERLAY, 0, STATIC
        PUBLIC WriteSDA_0
        FUNCTION WriteSDA_0,0203H
        ARGFRAME XSTACK, 9, STACK
        ARGFRAME IOVERLAY, 0, STATIC
        ARGFRAME DOVERLAY, 0, STATIC
        PUBLIC WriteSDA_1
        FUNCTION WriteSDA_1,0203H
        ARGFRAME XSTACK, 9, STACK
        ARGFRAME IOVERLAY, 0, STATIC
        ARGFRAME DOVERLAY, 0, STATIC
        PUBWEAK _A_P0
        PUBWEAK _A_PSW
        PUBLIC accX
        PUBLIC accY
        PUBLIC accZ
        PUBLIC delay_usec
        FUNCTION delay_usec,080203H
        ARGFRAME XSTACK, 9, STACK
        ARGFRAME IOVERLAY, 0, STATIC
        ARGFRAME DOVERLAY, 0, STATIC
        PUBLIC graX
        PUBLIC graY
        PUBLIC graZ
        PUBLIC type_change
        FUNCTION type_change,021203H
        ARGFRAME XSTACK, 34, STACK
        ARGFRAME IOVERLAY, 0, STATIC
        ARGFRAME DOVERLAY, 0, STATIC
        LOCFRAME ISTACK, 1, STACK
        LOCFRAME XSTACK, 14, STACK
        
        CFI Names cfiNames0
        CFI StackFrame CFA_SP SP IDATA
        CFI StackFrame CFA_PSP16 PSP16 XDATA
        CFI StackFrame CFA_XSP16 XSP16 XDATA
        CFI StaticOverlayFrame CFA_IOVERLAY IOVERLAY
        CFI StaticOverlayFrame CFA_DOVERLAY DOVERLAY
        CFI Resource `PSW.CY`:1, `B.BR0`:1, `B.BR1`:1, `B.BR2`:1, `B.BR3`:1
        CFI Resource `B.BR4`:1, `B.BR5`:1, `B.BR6`:1, `B.BR7`:1, `VB.BR8`:1
        CFI Resource `VB.BR9`:1, `VB.BR10`:1, `VB.BR11`:1, `VB.BR12`:1
        CFI Resource `VB.BR13`:1, `VB.BR14`:1, `VB.BR15`:1, VB:8, B:8, A:8
        CFI Resource PSW:8, DPL0:8, DPH0:8, R0:8, R1:8, R2:8, R3:8, R4:8, R5:8
        CFI Resource R6:8, R7:8, V0:8, V1:8, V2:8, V3:8, V4:8, V5:8, V6:8, V7:8
        CFI Resource V8:8, V9:8, V10:8, V11:8, V12:8, V13:8, V14:8, V15:8, SP:8
        CFI Resource PSPH:8, PSPL:8, PSP16:16, XSPH:8, XSPL:8, XSP16:16
        CFI VirtualResource ?RET:24
        CFI Resource ?BRET_EXT:8
        CFI VirtualResource ?RET_HIGH:8, ?RET_LOW:8
        CFI ResourceParts PSP16 PSPH, PSPL
        CFI ResourceParts XSP16 XSPH, XSPL
        CFI ResourceParts ?RET ?BRET_EXT, ?RET_HIGH, ?RET_LOW
        CFI EndNames cfiNames0
        
        CFI Common cfiCommon0 Using cfiNames0
        CFI CodeAlign 1
        CFI DataAlign -1
        CFI ReturnAddress ?RET CODE
        CFI CFA_DOVERLAY Used
        CFI CFA_IOVERLAY Used
        CFI CFA_SP SP+-3
        CFI CFA_PSP16 PSP16+0
        CFI CFA_XSP16 XSP16+0
        CFI `PSW.CY` SameValue
        CFI `B.BR0` SameValue
        CFI `B.BR1` SameValue
        CFI `B.BR2` SameValue
        CFI `B.BR3` SameValue
        CFI `B.BR4` SameValue
        CFI `B.BR5` SameValue
        CFI `B.BR6` SameValue
        CFI `B.BR7` SameValue
        CFI `VB.BR8` SameValue
        CFI `VB.BR9` SameValue
        CFI `VB.BR10` SameValue
        CFI `VB.BR11` SameValue
        CFI `VB.BR12` SameValue
        CFI `VB.BR13` SameValue
        CFI `VB.BR14` SameValue
        CFI `VB.BR15` SameValue
        CFI VB SameValue
        CFI B Undefined
        CFI A Undefined
        CFI PSW SameValue
        CFI DPL0 SameValue
        CFI DPH0 SameValue
        CFI R0 Undefined
        CFI R1 Undefined
        CFI R2 Undefined
        CFI R3 Undefined
        CFI R4 Undefined
        CFI R5 Undefined
        CFI R6 SameValue
        CFI R7 SameValue
        CFI V0 SameValue
        CFI V1 SameValue
        CFI V2 SameValue
        CFI V3 SameValue
        CFI V4 SameValue
        CFI V5 SameValue
        CFI V6 SameValue
        CFI V7 SameValue
        CFI V8 SameValue
        CFI V9 SameValue
        CFI V10 SameValue
        CFI V11 SameValue
        CFI V12 SameValue
        CFI V13 SameValue
        CFI V14 SameValue
        CFI V15 SameValue
        CFI PSPH Undefined
        CFI PSPL Undefined
        CFI XSPH Undefined
        CFI XSPL Undefined
        CFI ?RET Concat
        CFI ?BRET_EXT Frame(CFA_SP, 3)
        CFI ?RET_HIGH Frame(CFA_SP, 2)
        CFI ?RET_LOW Frame(CFA_SP, 1)
        CFI EndCommon cfiCommon0
        
        
        CFI Common cfiCommon1 Using cfiNames0
        CFI CodeAlign 1
        CFI DataAlign -1
        CFI ReturnAddress ?RET CODE
        CFI CFA_DOVERLAY Used
        CFI CFA_IOVERLAY Used
        CFI CFA_SP SP+-2
        CFI CFA_PSP16 PSP16+0
        CFI CFA_XSP16 XSP16+0
        CFI `PSW.CY` SameValue
        CFI `B.BR0` SameValue
        CFI `B.BR1` SameValue
        CFI `B.BR2` SameValue
        CFI `B.BR3` SameValue
        CFI `B.BR4` SameValue
        CFI `B.BR5` SameValue
        CFI `B.BR6` SameValue
        CFI `B.BR7` SameValue
        CFI `VB.BR8` SameValue
        CFI `VB.BR9` SameValue
        CFI `VB.BR10` SameValue
        CFI `VB.BR11` SameValue
        CFI `VB.BR12` SameValue
        CFI `VB.BR13` SameValue
        CFI `VB.BR14` SameValue
        CFI `VB.BR15` SameValue
        CFI VB SameValue
        CFI B SameValue
        CFI A SameValue
        CFI PSW SameValue
        CFI DPL0 SameValue
        CFI DPH0 SameValue
        CFI R0 SameValue
        CFI R1 SameValue
        CFI R2 SameValue
        CFI R3 SameValue
        CFI R4 SameValue
        CFI R5 SameValue
        CFI R6 SameValue
        CFI R7 SameValue
        CFI V0 SameValue
        CFI V1 SameValue
        CFI V2 SameValue
        CFI V3 SameValue
        CFI V4 SameValue
        CFI V5 SameValue
        CFI V6 SameValue
        CFI V7 SameValue
        CFI V8 SameValue
        CFI V9 SameValue
        CFI V10 SameValue
        CFI V11 SameValue
        CFI V12 SameValue
        CFI V13 SameValue
        CFI V14 SameValue
        CFI V15 SameValue
        CFI PSPH Undefined
        CFI PSPL Undefined
        CFI XSPH Undefined
        CFI XSPL Undefined
        CFI ?RET Concat
        CFI ?BRET_EXT SameValue
        CFI ?RET_HIGH Frame(CFA_SP, 2)
        CFI ?RET_LOW Frame(CFA_SP, 1)
        CFI EndCommon cfiCommon1
        
HalUARTWrite        SYMBOL "HalUARTWrite"
??HalUARTWrite?relay SYMBOL "?relay", HalUARTWrite
ALLInit             SYMBOL "ALLInit"
??ALLInit?relay     SYMBOL "?relay", ALLInit
I2C_RecvACK         SYMBOL "I2C_RecvACK"
??I2C_RecvACK?relay SYMBOL "?relay", I2C_RecvACK
I2C_RecvByte        SYMBOL "I2C_RecvByte"
??I2C_RecvByte?relay SYMBOL "?relay", I2C_RecvByte
I2C_SendACK         SYMBOL "I2C_SendACK"
??I2C_SendACK?relay SYMBOL "?relay", I2C_SendACK
I2C_SendByte        SYMBOL "I2C_SendByte"
??I2C_SendByte?relay SYMBOL "?relay", I2C_SendByte
I2C_Start           SYMBOL "I2C_Start"
??I2C_Start?relay   SYMBOL "?relay", I2C_Start
I2C_Stop            SYMBOL "I2C_Stop"
??I2C_Stop?relay    SYMBOL "?relay", I2C_Stop
InitMPU6050         SYMBOL "InitMPU6050"
??InitMPU6050?relay SYMBOL "?relay", InitMPU6050
Init_IO             SYMBOL "Init_IO"
??Init_IO?relay     SYMBOL "?relay", Init_IO
Multiple_read_MPU6050 SYMBOL "Multiple_read_MPU6050"
??Multiple_read_MPU6050?relay SYMBOL "?relay", Multiple_read_MPU6050
ReadSDA             SYMBOL "ReadSDA"
??ReadSDA?relay     SYMBOL "?relay", ReadSDA
Single_ReadI2C      SYMBOL "Single_ReadI2C"
??Single_ReadI2C?relay SYMBOL "?relay", Single_ReadI2C
Single_WriteI2C     SYMBOL "Single_WriteI2C"
??Single_WriteI2C?relay SYMBOL "?relay", Single_WriteI2C
WriteSCL_0          SYMBOL "WriteSCL_0"
??WriteSCL_0?relay  SYMBOL "?relay", WriteSCL_0
WriteSCL_1          SYMBOL "WriteSCL_1"
??WriteSCL_1?relay  SYMBOL "?relay", WriteSCL_1
WriteSDA_0          SYMBOL "WriteSDA_0"
??WriteSDA_0?relay  SYMBOL "?relay", WriteSDA_0
WriteSDA_1          SYMBOL "WriteSDA_1"
??WriteSDA_1?relay  SYMBOL "?relay", WriteSDA_1
delay_usec          SYMBOL "delay_usec"
??delay_usec?relay  SYMBOL "?relay", delay_usec
type_change         SYMBOL "type_change"
??type_change?relay SYMBOL "?relay", type_change

        EXTERN HalUARTWrite
        FUNCTION HalUARTWrite,0202H
        ARGFRAME ISTACK, 0, STACK
        ARGFRAME PSTACK, 0, STACK
        ARGFRAME XSTACK, 34, STACK
        ARGFRAME IOVERLAY, 0, STATIC
        ARGFRAME DOVERLAY, 0, STATIC
        EXTERN ??HalUARTWrite?relay
        FUNCTION ??HalUARTWrite?relay,00H

// E:\梁宇\项目2\zigbee读取MPU6050 WIN\ZStack-CC2530-2.5.1a-加速度传感器\Projects\zstack\Samples\SampleApp\Source\mma8451.c
//    1 /******************************************************************************
//    2  * INCLUDES
//    3  */
//    4 
//    5 #include "ioCC2530.h"

        ASEGN SFR_AN:DATA:NOROOT,080H
// union <unnamed> volatile __sfr _A_P0
_A_P0:
        DATA8
        DS 1

        ASEGN SFR_AN:DATA:NOROOT,0d0H
// union <unnamed> volatile __sfr _A_PSW
_A_PSW:
        DATA8
        DS 1

        ASEGN SFR_AN:DATA:NOROOT,0f3H
// unsigned char volatile __sfr P0SEL
P0SEL:
        DATA8
        DS 1

        ASEGN SFR_AN:DATA:NOROOT,0fdH
// unsigned char volatile __sfr P0DIR
P0DIR:
        DATA8
        DS 1
//    6 #include"MPU6050.h"
//    7 #include "OnBoard.h"
//    8 #include "hal_types.h"
//    9 
//   10 #define uint  unsigned int
//   11 #define uchar unsigned char

        RSEG XDATA_Z:XDATA:NOROOT(0)
        DATA16
//   12 int accX,accY,accZ,graX,graY,graZ;
accX:
        DS 2
        REQUIRE __INIT_XDATA_Z

        RSEG XDATA_Z:XDATA:NOROOT(0)
        DATA16
accY:
        DS 2
        REQUIRE __INIT_XDATA_Z

        RSEG XDATA_Z:XDATA:NOROOT(0)
        DATA16
accZ:
        DS 2
        REQUIRE __INIT_XDATA_Z

        RSEG XDATA_Z:XDATA:NOROOT(0)
        DATA16
graX:
        DS 2
        REQUIRE __INIT_XDATA_Z

        RSEG XDATA_Z:XDATA:NOROOT(0)
        DATA16
graY:
        DS 2
        REQUIRE __INIT_XDATA_Z

        RSEG XDATA_Z:XDATA:NOROOT(0)
        DATA16
graZ:
        DS 2
        REQUIRE __INIT_XDATA_Z
//   13 
//   14 
//   15 
//   16 
//   17 
//   18 void delay_usec(uchar u);
//   19 void WriteSDA_0(void);
//   20 void WriteSDA_1(void);
//   21 void WriteSCL_0(void);
//   22 void WriteSCL_1(void);
//   23 void ReadSDA(void);
//   24 void Init_IO(void);
//   25 void I2C_Start(void);
//   26 void I2C_Stop(void);
//   27 void I2C_SendACK(uchar ack);
//   28 uchar I2C_RecvACK(void);
//   29 void I2C_SendByte(uchar data);
//   30 uchar I2C_RecvByte(void);
//   31 void Single_WriteI2C(uchar REG_Address,uchar REG_data);
//   32 uchar Single_ReadI2C(uchar REG_Address);
//   33 void InitMPU6050(void);
//   34 void ALLInit(void);
//   35 void Multiple_read_MPU6050(void);
//   36 void type_change(int num);
//   37 
//   38 
//   39 

        RSEG BANKED_CODE:CODE:NOROOT(0)
//   40 void ALLInit(void)
ALLInit:
        CFI Block cfiBlock0 Using cfiCommon0
        CFI Function ALLInit
        CODE
//   41 {
        FUNCALL ALLInit, Init_IO
        LOCFRAME ISTACK, 2, STACK
        LOCFRAME PSTACK, 0, STACK
        LOCFRAME XSTACK, 0, STACK
        LOCFRAME IOVERLAY, 0, STATIC
        LOCFRAME DOVERLAY, 0, STATIC
        ARGFRAME ISTACK, 2, STACK
        ARGFRAME PSTACK, 0, STACK
        ARGFRAME XSTACK, 0, STACK
        ARGFRAME IOVERLAY, 0, STATIC
        ARGFRAME DOVERLAY, 0, STATIC
        FUNCALL ALLInit, InitMPU6050
        LOCFRAME ISTACK, 2, STACK
        LOCFRAME PSTACK, 0, STACK
        LOCFRAME XSTACK, 0, STACK
        LOCFRAME IOVERLAY, 0, STATIC
        LOCFRAME DOVERLAY, 0, STATIC
        ARGFRAME ISTACK, 2, STACK
        ARGFRAME PSTACK, 0, STACK
        ARGFRAME XSTACK, 0, STACK
        ARGFRAME IOVERLAY, 0, STATIC
        ARGFRAME DOVERLAY, 0, STATIC
        PUSH    DPL
        CFI DPL0 Frame(CFA_SP, 4)
        CFI CFA_SP SP+-4
        PUSH    DPH
        CFI DPH0 Frame(CFA_SP, 5)
        CFI CFA_SP SP+-5
        ; Saved register size: 2
        ; Auto size: 0
//   42    Init_IO();
        ; Setup parameters for call to function Init_IO
        LCALL   ??Init_IO?relay
//   43    InitMPU6050();
        ; Setup parameters for call to function InitMPU6050
        LCALL   ??InitMPU6050?relay
//   44 }
        LJMP    ?Subroutine0 & 0xFFFF
        CFI EndBlock cfiBlock0
//   45 
//   46 
//   47 /****************us延时函数 32M晶振 单周期MCU********************/

        RSEG BANKED_CODE:CODE:NOROOT(0)
//   48 void delay_usec(uchar u)
delay_usec:
        CFI Block cfiBlock1 Using cfiCommon0
        CFI Function delay_usec
        CODE
//   49 {
        ; Saved register size: 0
        ; Auto size: 0
        SJMP    ??delay_usec_0
//   50   while(u --)
//   51   {
//   52     /* 32 NOPs == 1 usecs */
//   53     asm("nop"); asm("nop"); asm("nop"); asm("nop"); 
??delay_usec_1:
        nop
        nop
        nop
        nop
//   54     asm("nop"); asm("nop"); asm("nop"); asm("nop"); 
        nop
        nop
        nop
        nop
//   55     asm("nop"); asm("nop"); asm("nop"); asm("nop"); 
        nop
        nop
        nop
        nop
//   56     asm("nop"); asm("nop"); asm("nop"); asm("nop"); 
        nop
        nop
        nop
        nop
//   57     asm("nop"); asm("nop"); asm("nop"); asm("nop");
        nop
        nop
        nop
        nop
//   58     asm("nop"); asm("nop"); asm("nop"); asm("nop"); 
        nop
        nop
        nop
        nop
//   59     asm("nop"); asm("nop"); asm("nop"); asm("nop"); 
        nop
        nop
        nop
        nop
//   60     asm("nop"); asm("nop"); asm("nop"); asm("nop");
        nop
        nop
        nop
        nop
//   61   }
??delay_usec_0:
        MOV     A,R1
        MOV     R0,A
        MOV     A,#-0x1
        ADD     A,R0
        DEC     R1
        INC     A
        JNZ     ??delay_usec_1
//   62 }
        LJMP    ?BRET
        CFI EndBlock cfiBlock1
//   63 
//   64 /*****************************MPU6050*******************************/

        RSEG BANKED_CODE:CODE:NOROOT(0)
//   65 void WriteSDA_0(void) 
WriteSDA_0:
        CFI Block cfiBlock2 Using cfiCommon0
        CFI Function WriteSDA_0
        CODE
//   66 {
        ; Saved register size: 0
        ; Auto size: 0
//   67     P0DIR|=0x40;
        ORL     0xfd,#0x40
//   68     SDA=0;
        CLR     0x80.7
//   69 }
        LJMP    ?BRET
        CFI EndBlock cfiBlock2
        REQUIRE P0DIR
        REQUIRE _A_P0
//   70 

        RSEG BANKED_CODE:CODE:NOROOT(0)
//   71 void WriteSDA_1() 
WriteSDA_1:
        CFI Block cfiBlock3 Using cfiCommon0
        CFI Function WriteSDA_1
        CODE
//   72 {
        ; Saved register size: 0
        ; Auto size: 0
//   73     P0DIR|=0x40;
        ORL     0xfd,#0x40
//   74     SDA=1;
        SETB    0x80.7
//   75 }
        LJMP    ?BRET
        CFI EndBlock cfiBlock3
        REQUIRE P0DIR
        REQUIRE _A_P0
//   76     

        RSEG BANKED_CODE:CODE:NOROOT(0)
//   77 void WriteSCL_0()    
WriteSCL_0:
        CFI Block cfiBlock4 Using cfiCommon0
        CFI Function WriteSCL_0
        CODE
//   78 {
        ; Saved register size: 0
        ; Auto size: 0
//   79     P0DIR|=0x80;
        ORL     0xfd,#0x80
//   80     SCL=0;
        CLR     0x80.6
//   81 }
        LJMP    ?BRET
        CFI EndBlock cfiBlock4
        REQUIRE P0DIR
        REQUIRE _A_P0
//   82 

        RSEG BANKED_CODE:CODE:NOROOT(0)
//   83 void WriteSCL_1()    
WriteSCL_1:
        CFI Block cfiBlock5 Using cfiCommon0
        CFI Function WriteSCL_1
        CODE
//   84 {
        ; Saved register size: 0
        ; Auto size: 0
//   85     P0DIR|=0x80;
        ORL     0xfd,#0x80
//   86     SCL=1;
        SETB    0x80.6
//   87 }
        LJMP    ?BRET
        CFI EndBlock cfiBlock5
        REQUIRE P0DIR
        REQUIRE _A_P0
//   88 

        RSEG BANKED_CODE:CODE:NOROOT(0)
//   89 void ReadSDA(void)//sda输入,=0
ReadSDA:
        CFI Block cfiBlock6 Using cfiCommon0
        CFI Function ReadSDA
        CODE
//   90 {
        ; Saved register size: 0
        ; Auto size: 0
//   91     P0DIR&=0xBF;
        ANL     0xfd,#0xbf
//   92 }
        LJMP    ?BRET
        CFI EndBlock cfiBlock6
        REQUIRE P0DIR
//   93 

        RSEG BANKED_CODE:CODE:NOROOT(0)
//   94 void Init_IO(void)
Init_IO:
        CFI Block cfiBlock7 Using cfiCommon0
        CFI Function Init_IO
        CODE
//   95 {
        ; Saved register size: 0
        ; Auto size: 0
//   96   P0DIR|=0xc0;
        ORL     0xfd,#0xc0
//   97   P0SEL&=0x3f;
        ANL     0xf3,#0x3f
//   98 }
        LJMP    ?BRET
        CFI EndBlock cfiBlock7
        REQUIRE P0DIR
        REQUIRE P0SEL
//   99 
//  100 
//  101 //I2C起始信号

        RSEG BANKED_CODE:CODE:NOROOT(0)
//  102 void I2C_Start()  
I2C_Start:
        CFI Block cfiBlock8 Using cfiCommon0
        CFI Function I2C_Start
        CODE
//  103 {
        FUNCALL I2C_Start, WriteSDA_1
        LOCFRAME ISTACK, 2, STACK
        LOCFRAME PSTACK, 0, STACK
        LOCFRAME XSTACK, 0, STACK
        LOCFRAME IOVERLAY, 0, STATIC
        LOCFRAME DOVERLAY, 0, STATIC
        ARGFRAME ISTACK, 2, STACK
        ARGFRAME PSTACK, 0, STACK
        ARGFRAME XSTACK, 0, STACK
        ARGFRAME IOVERLAY, 0, STATIC
        ARGFRAME DOVERLAY, 0, STATIC
        FUNCALL I2C_Start, WriteSCL_1
        LOCFRAME ISTACK, 2, STACK
        LOCFRAME PSTACK, 0, STACK
        LOCFRAME XSTACK, 0, STACK
        LOCFRAME IOVERLAY, 0, STATIC
        LOCFRAME DOVERLAY, 0, STATIC
        ARGFRAME ISTACK, 2, STACK
        ARGFRAME PSTACK, 0, STACK
        ARGFRAME XSTACK, 0, STACK
        ARGFRAME IOVERLAY, 0, STATIC
        ARGFRAME DOVERLAY, 0, STATIC
        FUNCALL I2C_Start, delay_usec
        LOCFRAME ISTACK, 2, STACK
        LOCFRAME PSTACK, 0, STACK
        LOCFRAME XSTACK, 0, STACK
        LOCFRAME IOVERLAY, 0, STATIC
        LOCFRAME DOVERLAY, 0, STATIC
        ARGFRAME ISTACK, 2, STACK
        ARGFRAME PSTACK, 0, STACK
        ARGFRAME XSTACK, 0, STACK
        ARGFRAME IOVERLAY, 0, STATIC
        ARGFRAME DOVERLAY, 0, STATIC
        FUNCALL I2C_Start, WriteSDA_0
        LOCFRAME ISTACK, 2, STACK
        LOCFRAME PSTACK, 0, STACK
        LOCFRAME XSTACK, 0, STACK
        LOCFRAME IOVERLAY, 0, STATIC
        LOCFRAME DOVERLAY, 0, STATIC
        ARGFRAME ISTACK, 2, STACK
        ARGFRAME PSTACK, 0, STACK
        ARGFRAME XSTACK, 0, STACK
        ARGFRAME IOVERLAY, 0, STATIC
        ARGFRAME DOVERLAY, 0, STATIC
        FUNCALL I2C_Start, delay_usec
        LOCFRAME ISTACK, 2, STACK
        LOCFRAME PSTACK, 0, STACK
        LOCFRAME XSTACK, 0, STACK
        LOCFRAME IOVERLAY, 0, STATIC
        LOCFRAME DOVERLAY, 0, STATIC
        ARGFRAME ISTACK, 2, STACK
        ARGFRAME PSTACK, 0, STACK
        ARGFRAME XSTACK, 0, STACK
        ARGFRAME IOVERLAY, 0, STATIC
        ARGFRAME DOVERLAY, 0, STATIC
        FUNCALL I2C_Start, WriteSCL_0
        LOCFRAME ISTACK, 2, STACK
        LOCFRAME PSTACK, 0, STACK
        LOCFRAME XSTACK, 0, STACK
        LOCFRAME IOVERLAY, 0, STATIC
        LOCFRAME DOVERLAY, 0, STATIC
        ARGFRAME ISTACK, 2, STACK
        ARGFRAME PSTACK, 0, STACK
        ARGFRAME XSTACK, 0, STACK
        ARGFRAME IOVERLAY, 0, STATIC
        ARGFRAME DOVERLAY, 0, STATIC
        FUNCALL I2C_Start, delay_usec
        LOCFRAME ISTACK, 2, STACK
        LOCFRAME PSTACK, 0, STACK
        LOCFRAME XSTACK, 0, STACK
        LOCFRAME IOVERLAY, 0, STATIC
        LOCFRAME DOVERLAY, 0, STATIC
        ARGFRAME ISTACK, 2, STACK
        ARGFRAME PSTACK, 0, STACK
        ARGFRAME XSTACK, 0, STACK
        ARGFRAME IOVERLAY, 0, STATIC
        ARGFRAME DOVERLAY, 0, STATIC
        PUSH    DPL
        CFI DPL0 Frame(CFA_SP, 4)
        CFI CFA_SP SP+-4
        PUSH    DPH
        CFI DPH0 Frame(CFA_SP, 5)
        CFI CFA_SP SP+-5
        ; Saved register size: 2
        ; Auto size: 0
//  104     WriteSDA_1();
        ; Setup parameters for call to function WriteSDA_1
        LCALL   ??WriteSDA_1?relay
//  105     WriteSCL_1();
        ; Setup parameters for call to function WriteSCL_1
        LCALL   ?Subroutine3 & 0xFFFF
//  106     delay_usec(50);
//  107     WriteSDA_0();
??CrossCallReturnLabel_0:
        ; Setup parameters for call to function WriteSDA_0
        LCALL   ??WriteSDA_0?relay
//  108     delay_usec(50);
        ; Setup parameters for call to function delay_usec
        LCALL   ??Subroutine9_0 & 0xFFFF
//  109     WriteSCL_0();
//  110     delay_usec(50);
//  111 }
??CrossCallReturnLabel_31:
        SJMP    ?Subroutine0
        CFI EndBlock cfiBlock8

        RSEG BANKED_CODE:CODE:NOROOT(0)
?Subroutine2:
        CFI Block cfiCond9 Using cfiCommon0
        CFI NoFunction
        CFI Conditional ??CrossCallReturnLabel_29
        CFI R6 load(1, XDATA, add(CFA_XSP16, literal(-9)))
        CFI VB load(1, XDATA, add(CFA_XSP16, literal(-8)))
        CFI V0 load(1, XDATA, add(CFA_XSP16, literal(-7)))
        CFI R7 load(1, XDATA, add(CFA_XSP16, literal(-6)))
        CFI ?RET_LOW load(1, XDATA, add(CFA_XSP16, literal(-5)))
        CFI ?RET_HIGH load(1, XDATA, add(CFA_XSP16, literal(-4)))
        CFI ?BRET_EXT load(1, XDATA, add(CFA_XSP16, literal(-3)))
        CFI DPL0 load(1, XDATA, add(CFA_XSP16, literal(-2)))
        CFI DPH0 load(1, XDATA, add(CFA_XSP16, literal(-1)))
        CFI CFA_SP SP+0
        CFI CFA_XSP16 add(XSP16, 9)
        CFI Block cfiCond10 Using cfiCommon0
        CFI (cfiCond10) NoFunction
        CFI (cfiCond10) Conditional ??CrossCallReturnLabel_30
        CFI (cfiCond10) R6 load(1, XDATA, add(CFA_XSP16, literal(-9)))
        CFI (cfiCond10) VB load(1, XDATA, add(CFA_XSP16, literal(-8)))
        CFI (cfiCond10) V0 load(1, XDATA, add(CFA_XSP16, literal(-7)))
        CFI (cfiCond10) R7 load(1, XDATA, add(CFA_XSP16, literal(-6)))
        CFI (cfiCond10) ?RET_LOW load(1, XDATA, add(CFA_XSP16, literal(-5)))
        CFI (cfiCond10) ?RET_HIGH load(1, XDATA, add(CFA_XSP16, literal(-4)))
        CFI (cfiCond10) ?BRET_EXT load(1, XDATA, add(CFA_XSP16, literal(-3)))
        CFI (cfiCond10) DPL0 load(1, XDATA, add(CFA_XSP16, literal(-2)))
        CFI (cfiCond10) DPH0 load(1, XDATA, add(CFA_XSP16, literal(-1)))
        CFI (cfiCond10) CFA_SP SP+0
        CFI (cfiCond10) CFA_XSP16 add(XSP16, 9)
        CFI Block cfiPicker11 Using cfiCommon1
        CFI (cfiPicker11) NoFunction
        CFI (cfiPicker11) Picker
        LCALL   ??WriteSCL_1?relay
        CFI EndBlock cfiCond9
        CFI EndBlock cfiCond10
        CFI EndBlock cfiPicker11
        ; Setup parameters for call to function delay_usec
        ; Setup parameters for call to function delay_usec
        REQUIRE ??Subroutine9_0
        ; // Fall through to label ??Subroutine9_0

        RSEG BANKED_CODE:CODE:NOROOT(0)
??Subroutine9_0:
        CFI Block cfiCond12 Using cfiCommon0
        CFI NoFunction
        CFI Conditional ??CrossCallReturnLabel_31
        CFI DPL0 Frame(CFA_SP, 4)
        CFI DPH0 Frame(CFA_SP, 5)
        CFI CFA_SP SP+-5
        CFI Block cfiCond13 Using cfiCommon0
        CFI (cfiCond13) NoFunction
        CFI (cfiCond13) Conditional ??CrossCallReturnLabel_29
        CFI (cfiCond13) R6 load(1, XDATA, add(CFA_XSP16, literal(-9)))
        CFI (cfiCond13) VB load(1, XDATA, add(CFA_XSP16, literal(-8)))
        CFI (cfiCond13) V0 load(1, XDATA, add(CFA_XSP16, literal(-7)))
        CFI (cfiCond13) R7 load(1, XDATA, add(CFA_XSP16, literal(-6)))
        CFI (cfiCond13) ?RET_LOW load(1, XDATA, add(CFA_XSP16, literal(-5)))
        CFI (cfiCond13) ?RET_HIGH load(1, XDATA, add(CFA_XSP16, literal(-4)))
        CFI (cfiCond13) ?BRET_EXT load(1, XDATA, add(CFA_XSP16, literal(-3)))
        CFI (cfiCond13) DPL0 load(1, XDATA, add(CFA_XSP16, literal(-2)))
        CFI (cfiCond13) DPH0 load(1, XDATA, add(CFA_XSP16, literal(-1)))
        CFI (cfiCond13) CFA_SP SP+0
        CFI (cfiCond13) CFA_XSP16 add(XSP16, 9)
        CFI Block cfiCond14 Using cfiCommon0
        CFI (cfiCond14) NoFunction
        CFI (cfiCond14) Conditional ??CrossCallReturnLabel_30
        CFI (cfiCond14) R6 load(1, XDATA, add(CFA_XSP16, literal(-9)))
        CFI (cfiCond14) VB load(1, XDATA, add(CFA_XSP16, literal(-8)))
        CFI (cfiCond14) V0 load(1, XDATA, add(CFA_XSP16, literal(-7)))
        CFI (cfiCond14) R7 load(1, XDATA, add(CFA_XSP16, literal(-6)))
        CFI (cfiCond14) ?RET_LOW load(1, XDATA, add(CFA_XSP16, literal(-5)))
        CFI (cfiCond14) ?RET_HIGH load(1, XDATA, add(CFA_XSP16, literal(-4)))
        CFI (cfiCond14) ?BRET_EXT load(1, XDATA, add(CFA_XSP16, literal(-3)))
        CFI (cfiCond14) DPL0 load(1, XDATA, add(CFA_XSP16, literal(-2)))
        CFI (cfiCond14) DPH0 load(1, XDATA, add(CFA_XSP16, literal(-1)))
        CFI (cfiCond14) CFA_SP SP+0
        CFI (cfiCond14) CFA_XSP16 add(XSP16, 9)
        CFI Block cfiPicker15 Using cfiCommon1
        CFI (cfiPicker15) NoFunction
        CFI (cfiPicker15) Picker
        MOV     R1,#0x32
        LCALL   ??delay_usec?relay
        CFI EndBlock cfiCond12
        CFI EndBlock cfiCond13
        CFI EndBlock cfiCond14
        CFI EndBlock cfiPicker15
        ; Setup parameters for call to function WriteSCL_0
        ; Setup parameters for call to function WriteSCL_0
        ; Setup parameters for call to function WriteSCL_0
        REQUIRE ??Subroutine10_0
        ; // Fall through to label ??Subroutine10_0

        RSEG BANKED_CODE:CODE:NOROOT(0)
??Subroutine10_0:
        CFI Block cfiCond16 Using cfiCommon0
        CFI NoFunction
        CFI Conditional ??CrossCallReturnLabel_32
        CFI DPL0 Frame(CFA_SP, 4)
        CFI DPH0 Frame(CFA_SP, 5)
        CFI CFA_SP SP+-5
        CFI Block cfiCond17 Using cfiCommon0
        CFI (cfiCond17) NoFunction
        CFI (cfiCond17) Conditional ??CrossCallReturnLabel_33
        CFI (cfiCond17) R6 load(1, XDATA, add(CFA_XSP16, literal(-9)))
        CFI (cfiCond17) VB load(1, XDATA, add(CFA_XSP16, literal(-8)))
        CFI (cfiCond17) V0 load(1, XDATA, add(CFA_XSP16, literal(-7)))
        CFI (cfiCond17) R7 load(1, XDATA, add(CFA_XSP16, literal(-6)))
        CFI (cfiCond17) ?RET_LOW load(1, XDATA, add(CFA_XSP16, literal(-5)))
        CFI (cfiCond17) ?RET_HIGH load(1, XDATA, add(CFA_XSP16, literal(-4)))
        CFI (cfiCond17) ?BRET_EXT load(1, XDATA, add(CFA_XSP16, literal(-3)))
        CFI (cfiCond17) DPL0 load(1, XDATA, add(CFA_XSP16, literal(-2)))
        CFI (cfiCond17) DPH0 load(1, XDATA, add(CFA_XSP16, literal(-1)))
        CFI (cfiCond17) CFA_SP SP+0
        CFI (cfiCond17) CFA_XSP16 add(XSP16, 9)
        CFI Block cfiCond18 Using cfiCommon0
        CFI (cfiCond18) NoFunction
        CFI (cfiCond18) Conditional ??CrossCallReturnLabel_31
        CFI (cfiCond18) DPL0 Frame(CFA_SP, 4)
        CFI (cfiCond18) DPH0 Frame(CFA_SP, 5)
        CFI (cfiCond18) CFA_SP SP+-5
        CFI Block cfiCond19 Using cfiCommon0
        CFI (cfiCond19) NoFunction
        CFI (cfiCond19) Conditional ??CrossCallReturnLabel_29
        CFI (cfiCond19) R6 load(1, XDATA, add(CFA_XSP16, literal(-9)))
        CFI (cfiCond19) VB load(1, XDATA, add(CFA_XSP16, literal(-8)))
        CFI (cfiCond19) V0 load(1, XDATA, add(CFA_XSP16, literal(-7)))
        CFI (cfiCond19) R7 load(1, XDATA, add(CFA_XSP16, literal(-6)))
        CFI (cfiCond19) ?RET_LOW load(1, XDATA, add(CFA_XSP16, literal(-5)))
        CFI (cfiCond19) ?RET_HIGH load(1, XDATA, add(CFA_XSP16, literal(-4)))
        CFI (cfiCond19) ?BRET_EXT load(1, XDATA, add(CFA_XSP16, literal(-3)))
        CFI (cfiCond19) DPL0 load(1, XDATA, add(CFA_XSP16, literal(-2)))
        CFI (cfiCond19) DPH0 load(1, XDATA, add(CFA_XSP16, literal(-1)))
        CFI (cfiCond19) CFA_SP SP+0
        CFI (cfiCond19) CFA_XSP16 add(XSP16, 9)
        CFI Block cfiCond20 Using cfiCommon0
        CFI (cfiCond20) NoFunction
        CFI (cfiCond20) Conditional ??CrossCallReturnLabel_30
        CFI (cfiCond20) R6 load(1, XDATA, add(CFA_XSP16, literal(-9)))
        CFI (cfiCond20) VB load(1, XDATA, add(CFA_XSP16, literal(-8)))
        CFI (cfiCond20) V0 load(1, XDATA, add(CFA_XSP16, literal(-7)))
        CFI (cfiCond20) R7 load(1, XDATA, add(CFA_XSP16, literal(-6)))
        CFI (cfiCond20) ?RET_LOW load(1, XDATA, add(CFA_XSP16, literal(-5)))
        CFI (cfiCond20) ?RET_HIGH load(1, XDATA, add(CFA_XSP16, literal(-4)))
        CFI (cfiCond20) ?BRET_EXT load(1, XDATA, add(CFA_XSP16, literal(-3)))
        CFI (cfiCond20) DPL0 load(1, XDATA, add(CFA_XSP16, literal(-2)))
        CFI (cfiCond20) DPH0 load(1, XDATA, add(CFA_XSP16, literal(-1)))
        CFI (cfiCond20) CFA_SP SP+0
        CFI (cfiCond20) CFA_XSP16 add(XSP16, 9)
        CFI Block cfiPicker21 Using cfiCommon1
        CFI (cfiPicker21) NoFunction
        CFI (cfiPicker21) Picker
        LCALL   ??WriteSCL_0?relay
        ; Setup parameters for call to function delay_usec
        ; Setup parameters for call to function delay_usec
        ; Setup parameters for call to function delay_usec
        ; Setup parameters for call to function delay_usec
        ; Setup parameters for call to function delay_usec
        MOV     R1,#0x32
        LCALL   ??delay_usec?relay
        RET
        CFI EndBlock cfiCond16
        CFI EndBlock cfiCond17
        CFI EndBlock cfiCond18
        CFI EndBlock cfiCond19
        CFI EndBlock cfiCond20
        CFI EndBlock cfiPicker21
//  112 
//  113 
//  114 //I2C停止信号

        RSEG BANKED_CODE:CODE:NOROOT(0)
//  115 void I2C_Stop()  
I2C_Stop:
        CFI Block cfiBlock22 Using cfiCommon0
        CFI Function I2C_Stop
        CODE
//  116 {    
        FUNCALL I2C_Stop, WriteSDA_0
        LOCFRAME ISTACK, 2, STACK
        LOCFRAME PSTACK, 0, STACK
        LOCFRAME XSTACK, 0, STACK
        LOCFRAME IOVERLAY, 0, STATIC
        LOCFRAME DOVERLAY, 0, STATIC
        ARGFRAME ISTACK, 2, STACK
        ARGFRAME PSTACK, 0, STACK
        ARGFRAME XSTACK, 0, STACK
        ARGFRAME IOVERLAY, 0, STATIC
        ARGFRAME DOVERLAY, 0, STATIC
        FUNCALL I2C_Stop, WriteSCL_1
        LOCFRAME ISTACK, 2, STACK
        LOCFRAME PSTACK, 0, STACK
        LOCFRAME XSTACK, 0, STACK
        LOCFRAME IOVERLAY, 0, STATIC
        LOCFRAME DOVERLAY, 0, STATIC
        ARGFRAME ISTACK, 2, STACK
        ARGFRAME PSTACK, 0, STACK
        ARGFRAME XSTACK, 0, STACK
        ARGFRAME IOVERLAY, 0, STATIC
        ARGFRAME DOVERLAY, 0, STATIC
        FUNCALL I2C_Stop, delay_usec
        LOCFRAME ISTACK, 2, STACK
        LOCFRAME PSTACK, 0, STACK
        LOCFRAME XSTACK, 0, STACK
        LOCFRAME IOVERLAY, 0, STATIC
        LOCFRAME DOVERLAY, 0, STATIC
        ARGFRAME ISTACK, 2, STACK
        ARGFRAME PSTACK, 0, STACK
        ARGFRAME XSTACK, 0, STACK
        ARGFRAME IOVERLAY, 0, STATIC
        ARGFRAME DOVERLAY, 0, STATIC
        FUNCALL I2C_Stop, WriteSDA_1
        LOCFRAME ISTACK, 2, STACK
        LOCFRAME PSTACK, 0, STACK
        LOCFRAME XSTACK, 0, STACK
        LOCFRAME IOVERLAY, 0, STATIC
        LOCFRAME DOVERLAY, 0, STATIC
        ARGFRAME ISTACK, 2, STACK
        ARGFRAME PSTACK, 0, STACK
        ARGFRAME XSTACK, 0, STACK
        ARGFRAME IOVERLAY, 0, STATIC
        ARGFRAME DOVERLAY, 0, STATIC
        PUSH    DPL
        CFI DPL0 Frame(CFA_SP, 4)
        CFI CFA_SP SP+-4
        PUSH    DPH
        CFI DPH0 Frame(CFA_SP, 5)
        CFI CFA_SP SP+-5
        ; Saved register size: 2
        ; Auto size: 0
//  117    WriteSDA_0();
        ; Setup parameters for call to function WriteSDA_0
        LCALL   ??WriteSDA_0?relay
//  118    WriteSCL_1();
        ; Setup parameters for call to function WriteSCL_1
        LCALL   ?Subroutine3 & 0xFFFF
//  119    delay_usec(50);
//  120    WriteSDA_1();
??CrossCallReturnLabel_1:
        ; Setup parameters for call to function WriteSDA_1
        LCALL   ??WriteSDA_1?relay
        CFI EndBlock cfiBlock22
//  121 }
        REQUIRE ?Subroutine0
        ; // Fall through to label ?Subroutine0

        RSEG BANKED_CODE:CODE:NOROOT(0)
?Subroutine0:
        CFI Block cfiBlock23 Using cfiCommon0
        CFI NoFunction
        CFI CFA_SP SP+-5
        CFI DPL0 Frame(CFA_SP, 4)
        CFI DPH0 Frame(CFA_SP, 5)
        POP     DPH
        CFI CFA_SP SP+-4
        CFI DPH0 SameValue
        POP     DPL
        CFI CFA_SP SP+-3
        CFI DPL0 SameValue
        LJMP    ?BRET
        CFI EndBlock cfiBlock23
//  122 
//  123 //I2C发送应答信号
//  124 //入口参数:ack (0:ACK 1:NAK)

        RSEG BANKED_CODE:CODE:NOROOT(0)
//  125 void I2C_SendACK(uchar ack)
I2C_SendACK:
        CFI Block cfiBlock24 Using cfiCommon0
        CFI Function I2C_SendACK
        CODE
//  126 {
        FUNCALL I2C_SendACK, WriteSCL_1
        LOCFRAME ISTACK, 0, STACK
        LOCFRAME PSTACK, 0, STACK
        LOCFRAME XSTACK, 9, STACK
        LOCFRAME IOVERLAY, 0, STATIC
        LOCFRAME DOVERLAY, 0, STATIC
        ARGFRAME ISTACK, 0, STACK
        ARGFRAME PSTACK, 0, STACK
        ARGFRAME XSTACK, 9, STACK
        ARGFRAME IOVERLAY, 0, STATIC
        ARGFRAME DOVERLAY, 0, STATIC
        FUNCALL I2C_SendACK, delay_usec
        LOCFRAME ISTACK, 0, STACK
        LOCFRAME PSTACK, 0, STACK
        LOCFRAME XSTACK, 9, STACK
        LOCFRAME IOVERLAY, 0, STATIC
        LOCFRAME DOVERLAY, 0, STATIC
        ARGFRAME ISTACK, 0, STACK
        ARGFRAME PSTACK, 0, STACK
        ARGFRAME XSTACK, 9, STACK
        ARGFRAME IOVERLAY, 0, STATIC
        ARGFRAME DOVERLAY, 0, STATIC
        FUNCALL I2C_SendACK, WriteSCL_0
        LOCFRAME ISTACK, 0, STACK
        LOCFRAME PSTACK, 0, STACK
        LOCFRAME XSTACK, 9, STACK
        LOCFRAME IOVERLAY, 0, STATIC
        LOCFRAME DOVERLAY, 0, STATIC
        ARGFRAME ISTACK, 0, STACK
        ARGFRAME PSTACK, 0, STACK
        ARGFRAME XSTACK, 9, STACK
        ARGFRAME IOVERLAY, 0, STATIC
        ARGFRAME DOVERLAY, 0, STATIC
        FUNCALL I2C_SendACK, delay_usec
        LOCFRAME ISTACK, 0, STACK
        LOCFRAME PSTACK, 0, STACK
        LOCFRAME XSTACK, 9, STACK
        LOCFRAME IOVERLAY, 0, STATIC
        LOCFRAME DOVERLAY, 0, STATIC
        ARGFRAME ISTACK, 0, STACK
        ARGFRAME PSTACK, 0, STACK
        ARGFRAME XSTACK, 9, STACK
        ARGFRAME IOVERLAY, 0, STATIC
        ARGFRAME DOVERLAY, 0, STATIC
        MOV     A,#-0x9
        LCALL   ?BANKED_ENTER_XDATA
        CFI DPH0 load(1, XDATA, add(CFA_XSP16, literal(-1)))
        CFI DPL0 load(1, XDATA, add(CFA_XSP16, literal(-2)))
        CFI ?BRET_EXT load(1, XDATA, add(CFA_XSP16, literal(-3)))
        CFI ?RET_HIGH load(1, XDATA, add(CFA_XSP16, literal(-4)))
        CFI ?RET_LOW load(1, XDATA, add(CFA_XSP16, literal(-5)))
        CFI R7 load(1, XDATA, add(CFA_XSP16, literal(-6)))
        CFI V0 load(1, XDATA, add(CFA_XSP16, literal(-7)))
        CFI VB load(1, XDATA, add(CFA_XSP16, literal(-8)))
        CFI R6 load(1, XDATA, add(CFA_XSP16, literal(-9)))
        CFI CFA_SP SP+0
        CFI CFA_XSP16 add(XSP16, 9)
        ; Saved register size: 9
        ; Auto size: 0
        MOV     A,R1
//  127     
//  128     SDA=ack;                     //写应答信号
        MOV     C,0xE0 /* A   */.0
        MOV     0x80.7,C
//  129     WriteSCL_1();                   //拉高时钟线
        ; Setup parameters for call to function WriteSCL_1
        LCALL   ?Subroutine2 & 0xFFFF
//  130     delay_usec(50);//Delay5us();    //延时
//  131     WriteSCL_0();                   //拉低时钟线
//  132     delay_usec(50);//Delay5us();    //延时
//  133 
//  134 }
??CrossCallReturnLabel_29:
        SJMP    ??Subroutine11_0
        CFI EndBlock cfiBlock24
        REQUIRE _A_P0
//  135 
//  136 //I2C接收应答信号

        RSEG BANKED_CODE:CODE:NOROOT(0)
//  137 uchar I2C_RecvACK()
I2C_RecvACK:
        CFI Block cfiBlock25 Using cfiCommon0
        CFI Function I2C_RecvACK
        CODE
//  138 {
        FUNCALL I2C_RecvACK, WriteSCL_1
        LOCFRAME ISTACK, 2, STACK
        LOCFRAME PSTACK, 0, STACK
        LOCFRAME XSTACK, 0, STACK
        LOCFRAME IOVERLAY, 0, STATIC
        LOCFRAME DOVERLAY, 0, STATIC
        ARGFRAME ISTACK, 2, STACK
        ARGFRAME PSTACK, 0, STACK
        ARGFRAME XSTACK, 0, STACK
        ARGFRAME IOVERLAY, 0, STATIC
        ARGFRAME DOVERLAY, 0, STATIC
        FUNCALL I2C_RecvACK, delay_usec
        LOCFRAME ISTACK, 2, STACK
        LOCFRAME PSTACK, 0, STACK
        LOCFRAME XSTACK, 0, STACK
        LOCFRAME IOVERLAY, 0, STATIC
        LOCFRAME DOVERLAY, 0, STATIC
        ARGFRAME ISTACK, 2, STACK
        ARGFRAME PSTACK, 0, STACK
        ARGFRAME XSTACK, 0, STACK
        ARGFRAME IOVERLAY, 0, STATIC
        ARGFRAME DOVERLAY, 0, STATIC
        FUNCALL I2C_RecvACK, WriteSCL_0
        LOCFRAME ISTACK, 2, STACK
        LOCFRAME PSTACK, 0, STACK
        LOCFRAME XSTACK, 0, STACK
        LOCFRAME IOVERLAY, 0, STATIC
        LOCFRAME DOVERLAY, 0, STATIC
        ARGFRAME ISTACK, 2, STACK
        ARGFRAME PSTACK, 0, STACK
        ARGFRAME XSTACK, 0, STACK
        ARGFRAME IOVERLAY, 0, STATIC
        ARGFRAME DOVERLAY, 0, STATIC
        FUNCALL I2C_RecvACK, delay_usec
        LOCFRAME ISTACK, 2, STACK
        LOCFRAME PSTACK, 0, STACK
        LOCFRAME XSTACK, 0, STACK
        LOCFRAME IOVERLAY, 0, STATIC
        LOCFRAME DOVERLAY, 0, STATIC
        ARGFRAME ISTACK, 2, STACK
        ARGFRAME PSTACK, 0, STACK
        ARGFRAME XSTACK, 0, STACK
        ARGFRAME IOVERLAY, 0, STATIC
        ARGFRAME DOVERLAY, 0, STATIC
        PUSH    DPL
        CFI DPL0 Frame(CFA_SP, 4)
        CFI CFA_SP SP+-4
        PUSH    DPH
        CFI DPH0 Frame(CFA_SP, 5)
        CFI CFA_SP SP+-5
        ; Saved register size: 2
        ; Auto size: 0
//  139     ReadSDA();
        ANL     0xfd,#0xbf
//  140     WriteSCL_1();                       //拉高时钟线
        ; Setup parameters for call to function WriteSCL_1
        LCALL   ?Subroutine3 & 0xFFFF
//  141     delay_usec(50);//Delay5us();    //延时
//  142     CY=SDA;                      //读应答信号
??CrossCallReturnLabel_2:
        MOV     C,0x80.7
        MOV     0xd0.7,C
//  143     WriteSCL_0();                       //拉低时钟线
        ; Setup parameters for call to function WriteSCL_0
        LCALL   ??Subroutine10_0 & 0xFFFF
//  144     delay_usec(50);//Delay5us();    //延时
//  145     P0DIR|=0x20;
??CrossCallReturnLabel_32:
        ORL     0xfd,#0x20
//  146     return CY;
        MOV     C,0xd0.7
        CLR     A
        RLC     A
        MOV     R1,A
        SJMP    ?Subroutine0
        CFI EndBlock cfiBlock25
        REQUIRE _A_PSW
        REQUIRE _A_P0
        REQUIRE P0DIR
//  147 
//  148 }

        RSEG BANKED_CODE:CODE:NOROOT(0)
?Subroutine3:
        CFI Block cfiCond26 Using cfiCommon0
        CFI NoFunction
        CFI Conditional ??CrossCallReturnLabel_0
        CFI DPL0 Frame(CFA_SP, 4)
        CFI DPH0 Frame(CFA_SP, 5)
        CFI CFA_SP SP+-5
        CFI Block cfiCond27 Using cfiCommon0
        CFI (cfiCond27) NoFunction
        CFI (cfiCond27) Conditional ??CrossCallReturnLabel_1
        CFI (cfiCond27) DPL0 Frame(CFA_SP, 4)
        CFI (cfiCond27) DPH0 Frame(CFA_SP, 5)
        CFI (cfiCond27) CFA_SP SP+-5
        CFI Block cfiCond28 Using cfiCommon0
        CFI (cfiCond28) NoFunction
        CFI (cfiCond28) Conditional ??CrossCallReturnLabel_2
        CFI (cfiCond28) DPL0 Frame(CFA_SP, 4)
        CFI (cfiCond28) DPH0 Frame(CFA_SP, 5)
        CFI (cfiCond28) CFA_SP SP+-5
        CFI Block cfiCond29 Using cfiCommon0
        CFI (cfiCond29) NoFunction
        CFI (cfiCond29) Conditional ??CrossCallReturnLabel_3
        CFI (cfiCond29) R6 load(1, XDATA, add(CFA_XSP16, literal(-9)))
        CFI (cfiCond29) VB load(1, XDATA, add(CFA_XSP16, literal(-8)))
        CFI (cfiCond29) V0 load(1, XDATA, add(CFA_XSP16, literal(-7)))
        CFI (cfiCond29) R7 load(1, XDATA, add(CFA_XSP16, literal(-6)))
        CFI (cfiCond29) ?RET_LOW load(1, XDATA, add(CFA_XSP16, literal(-5)))
        CFI (cfiCond29) ?RET_HIGH load(1, XDATA, add(CFA_XSP16, literal(-4)))
        CFI (cfiCond29) ?BRET_EXT load(1, XDATA, add(CFA_XSP16, literal(-3)))
        CFI (cfiCond29) DPL0 load(1, XDATA, add(CFA_XSP16, literal(-2)))
        CFI (cfiCond29) DPH0 load(1, XDATA, add(CFA_XSP16, literal(-1)))
        CFI (cfiCond29) CFA_SP SP+0
        CFI (cfiCond29) CFA_XSP16 add(XSP16, 9)
        CFI Block cfiPicker30 Using cfiCommon1
        CFI (cfiPicker30) NoFunction
        CFI (cfiPicker30) Picker
        LCALL   ??WriteSCL_1?relay
        ; Setup parameters for call to function delay_usec
        ; Setup parameters for call to function delay_usec
        ; Setup parameters for call to function delay_usec
        ; Setup parameters for call to function delay_usec
        MOV     R1,#0x32
        LCALL   ??delay_usec?relay
        RET
        CFI EndBlock cfiCond26
        CFI EndBlock cfiCond27
        CFI EndBlock cfiCond28
        CFI EndBlock cfiCond29
        CFI EndBlock cfiPicker30
//  149 
//  150 //向I2C总线发送一个字节数据

        RSEG BANKED_CODE:CODE:NOROOT(0)
//  151 void I2C_SendByte(uchar data)
I2C_SendByte:
        CFI Block cfiBlock31 Using cfiCommon0
        CFI Function I2C_SendByte
        CODE
//  152 {
        FUNCALL I2C_SendByte, WriteSDA_1
        LOCFRAME ISTACK, 0, STACK
        LOCFRAME PSTACK, 0, STACK
        LOCFRAME XSTACK, 9, STACK
        LOCFRAME IOVERLAY, 0, STATIC
        LOCFRAME DOVERLAY, 0, STATIC
        ARGFRAME ISTACK, 0, STACK
        ARGFRAME PSTACK, 0, STACK
        ARGFRAME XSTACK, 9, STACK
        ARGFRAME IOVERLAY, 0, STATIC
        ARGFRAME DOVERLAY, 0, STATIC
        FUNCALL I2C_SendByte, WriteSDA_0
        LOCFRAME ISTACK, 0, STACK
        LOCFRAME PSTACK, 0, STACK
        LOCFRAME XSTACK, 9, STACK
        LOCFRAME IOVERLAY, 0, STATIC
        LOCFRAME DOVERLAY, 0, STATIC
        ARGFRAME ISTACK, 0, STACK
        ARGFRAME PSTACK, 0, STACK
        ARGFRAME XSTACK, 9, STACK
        ARGFRAME IOVERLAY, 0, STATIC
        ARGFRAME DOVERLAY, 0, STATIC
        FUNCALL I2C_SendByte, WriteSCL_1
        LOCFRAME ISTACK, 0, STACK
        LOCFRAME PSTACK, 0, STACK
        LOCFRAME XSTACK, 9, STACK
        LOCFRAME IOVERLAY, 0, STATIC
        LOCFRAME DOVERLAY, 0, STATIC
        ARGFRAME ISTACK, 0, STACK
        ARGFRAME PSTACK, 0, STACK
        ARGFRAME XSTACK, 9, STACK
        ARGFRAME IOVERLAY, 0, STATIC
        ARGFRAME DOVERLAY, 0, STATIC
        FUNCALL I2C_SendByte, delay_usec
        LOCFRAME ISTACK, 0, STACK
        LOCFRAME PSTACK, 0, STACK
        LOCFRAME XSTACK, 9, STACK
        LOCFRAME IOVERLAY, 0, STATIC
        LOCFRAME DOVERLAY, 0, STATIC
        ARGFRAME ISTACK, 0, STACK
        ARGFRAME PSTACK, 0, STACK
        ARGFRAME XSTACK, 9, STACK
        ARGFRAME IOVERLAY, 0, STATIC
        ARGFRAME DOVERLAY, 0, STATIC
        FUNCALL I2C_SendByte, WriteSCL_0
        LOCFRAME ISTACK, 0, STACK
        LOCFRAME PSTACK, 0, STACK
        LOCFRAME XSTACK, 9, STACK
        LOCFRAME IOVERLAY, 0, STATIC
        LOCFRAME DOVERLAY, 0, STATIC
        ARGFRAME ISTACK, 0, STACK
        ARGFRAME PSTACK, 0, STACK
        ARGFRAME XSTACK, 9, STACK
        ARGFRAME IOVERLAY, 0, STATIC
        ARGFRAME DOVERLAY, 0, STATIC
        FUNCALL I2C_SendByte, delay_usec
        LOCFRAME ISTACK, 0, STACK
        LOCFRAME PSTACK, 0, STACK
        LOCFRAME XSTACK, 9, STACK
        LOCFRAME IOVERLAY, 0, STATIC
        LOCFRAME DOVERLAY, 0, STATIC
        ARGFRAME ISTACK, 0, STACK
        ARGFRAME PSTACK, 0, STACK
        ARGFRAME XSTACK, 9, STACK
        ARGFRAME IOVERLAY, 0, STATIC
        ARGFRAME DOVERLAY, 0, STATIC
        FUNCALL I2C_SendByte, I2C_RecvACK
        LOCFRAME ISTACK, 0, STACK
        LOCFRAME PSTACK, 0, STACK
        LOCFRAME XSTACK, 9, STACK
        LOCFRAME IOVERLAY, 0, STATIC
        LOCFRAME DOVERLAY, 0, STATIC
        ARGFRAME ISTACK, 0, STACK
        ARGFRAME PSTACK, 0, STACK
        ARGFRAME XSTACK, 9, STACK
        ARGFRAME IOVERLAY, 0, STATIC
        ARGFRAME DOVERLAY, 0, STATIC
        MOV     A,#-0x9
        LCALL   ?BANKED_ENTER_XDATA
        CFI DPH0 load(1, XDATA, add(CFA_XSP16, literal(-1)))
        CFI DPL0 load(1, XDATA, add(CFA_XSP16, literal(-2)))
        CFI ?BRET_EXT load(1, XDATA, add(CFA_XSP16, literal(-3)))
        CFI ?RET_HIGH load(1, XDATA, add(CFA_XSP16, literal(-4)))
        CFI ?RET_LOW load(1, XDATA, add(CFA_XSP16, literal(-5)))
        CFI R7 load(1, XDATA, add(CFA_XSP16, literal(-6)))
        CFI V0 load(1, XDATA, add(CFA_XSP16, literal(-7)))
        CFI VB load(1, XDATA, add(CFA_XSP16, literal(-8)))
        CFI R6 load(1, XDATA, add(CFA_XSP16, literal(-9)))
        CFI CFA_SP SP+0
        CFI CFA_XSP16 add(XSP16, 9)
        ; Saved register size: 9
        ; Auto size: 0
        MOV     A,R1
        MOV     R7,A
//  153     uchar i;
//  154     SDA_OUT();
        ORL     0xfd,#0x80
//  155     
//  156     for(i=0;i<8;i++)         //8位计数器
        MOV     R6,#0x8
//  157     {       
//  158         if(data&0x80)
??I2C_SendByte_0:
        MOV     A,R7
        MOV     C,0xE0 /* A   */.7
        JNC     ??I2C_SendByte_1
//  159         {WriteSDA_1();}
        ; Setup parameters for call to function WriteSDA_1
        LCALL   ??WriteSDA_1?relay
        SJMP    ??I2C_SendByte_2
//  160         else 
//  161         {WriteSDA_0();}
??I2C_SendByte_1:
        ; Setup parameters for call to function WriteSDA_0
        LCALL   ??WriteSDA_0?relay
//  162         
//  163         data<<=1;
??I2C_SendByte_2:
        MOV     A,R7
        CLR     C
        RLC     A
        MOV     R7,A
//  164         WriteSCL_1();            //拉高时钟线
        ; Setup parameters for call to function WriteSCL_1
        LCALL   ?Subroutine2 & 0xFFFF
//  165         delay_usec(50);          //延时
//  166         WriteSCL_0();            //拉低时钟线
//  167         delay_usec(50);          //延时
//  168     }
??CrossCallReturnLabel_30:
        DEC     R6
        MOV     A,R6
        JNZ     ??I2C_SendByte_0
//  169     I2C_RecvACK();
        ; Setup parameters for call to function I2C_RecvACK
        LCALL   ??I2C_RecvACK?relay
//  170 }
        SJMP    ??Subroutine11_0
        CFI EndBlock cfiBlock31
        REQUIRE P0DIR
//  171 
//  172 
//  173 //从I2C总线接收一个字节数据

        RSEG BANKED_CODE:CODE:NOROOT(0)
?Subroutine1:
        CFI Block cfiBlock32 Using cfiCommon0
        CFI NoFunction
        CFI CFA_SP SP+0
        CFI CFA_XSP16 add(XSP16, 9)
        CFI VB load(1, XDATA, add(CFA_XSP16, literal(-8)))
        CFI DPL0 load(1, XDATA, add(CFA_XSP16, literal(-2)))
        CFI DPH0 load(1, XDATA, add(CFA_XSP16, literal(-1)))
        CFI R6 load(1, XDATA, add(CFA_XSP16, literal(-9)))
        CFI R7 load(1, XDATA, add(CFA_XSP16, literal(-6)))
        CFI V0 load(1, XDATA, add(CFA_XSP16, literal(-7)))
        CFI ?BRET_EXT load(1, XDATA, add(CFA_XSP16, literal(-3)))
        CFI ?RET_HIGH load(1, XDATA, add(CFA_XSP16, literal(-4)))
        CFI ?RET_LOW load(1, XDATA, add(CFA_XSP16, literal(-5)))
        MOV     A,R6
        MOV     R1,A
        CFI EndBlock cfiBlock32
        REQUIRE ??Subroutine11_0
        ; // Fall through to label ??Subroutine11_0

        RSEG BANKED_CODE:CODE:NOROOT(0)
??Subroutine11_0:
        CFI Block cfiBlock33 Using cfiCommon0
        CFI NoFunction
        CFI CFA_SP SP+0
        CFI CFA_XSP16 add(XSP16, 9)
        CFI VB load(1, XDATA, add(CFA_XSP16, literal(-8)))
        CFI DPL0 load(1, XDATA, add(CFA_XSP16, literal(-2)))
        CFI DPH0 load(1, XDATA, add(CFA_XSP16, literal(-1)))
        CFI R6 load(1, XDATA, add(CFA_XSP16, literal(-9)))
        CFI R7 load(1, XDATA, add(CFA_XSP16, literal(-6)))
        CFI V0 load(1, XDATA, add(CFA_XSP16, literal(-7)))
        CFI ?BRET_EXT load(1, XDATA, add(CFA_XSP16, literal(-3)))
        CFI ?RET_HIGH load(1, XDATA, add(CFA_XSP16, literal(-4)))
        CFI ?RET_LOW load(1, XDATA, add(CFA_XSP16, literal(-5)))
        MOV     R7,#0x1
        LJMP    ?BANKED_LEAVE_XDATA
        CFI EndBlock cfiBlock33

        RSEG BANKED_CODE:CODE:NOROOT(0)
//  174 uchar I2C_RecvByte()
I2C_RecvByte:
        CFI Block cfiBlock34 Using cfiCommon0
        CFI Function I2C_RecvByte
        CODE
//  175 {
        FUNCALL I2C_RecvByte, WriteSDA_1
        LOCFRAME ISTACK, 0, STACK
        LOCFRAME PSTACK, 0, STACK
        LOCFRAME XSTACK, 9, STACK
        LOCFRAME IOVERLAY, 0, STATIC
        LOCFRAME DOVERLAY, 0, STATIC
        ARGFRAME ISTACK, 0, STACK
        ARGFRAME PSTACK, 0, STACK
        ARGFRAME XSTACK, 9, STACK
        ARGFRAME IOVERLAY, 0, STATIC
        ARGFRAME DOVERLAY, 0, STATIC
        FUNCALL I2C_RecvByte, WriteSCL_0
        LOCFRAME ISTACK, 0, STACK
        LOCFRAME PSTACK, 0, STACK
        LOCFRAME XSTACK, 9, STACK
        LOCFRAME IOVERLAY, 0, STATIC
        LOCFRAME DOVERLAY, 0, STATIC
        ARGFRAME ISTACK, 0, STACK
        ARGFRAME PSTACK, 0, STACK
        ARGFRAME XSTACK, 9, STACK
        ARGFRAME IOVERLAY, 0, STATIC
        ARGFRAME DOVERLAY, 0, STATIC
        FUNCALL I2C_RecvByte, delay_usec
        LOCFRAME ISTACK, 0, STACK
        LOCFRAME PSTACK, 0, STACK
        LOCFRAME XSTACK, 9, STACK
        LOCFRAME IOVERLAY, 0, STATIC
        LOCFRAME DOVERLAY, 0, STATIC
        ARGFRAME ISTACK, 0, STACK
        ARGFRAME PSTACK, 0, STACK
        ARGFRAME XSTACK, 9, STACK
        ARGFRAME IOVERLAY, 0, STATIC
        ARGFRAME DOVERLAY, 0, STATIC
        FUNCALL I2C_RecvByte, WriteSCL_1
        LOCFRAME ISTACK, 0, STACK
        LOCFRAME PSTACK, 0, STACK
        LOCFRAME XSTACK, 9, STACK
        LOCFRAME IOVERLAY, 0, STATIC
        LOCFRAME DOVERLAY, 0, STATIC
        ARGFRAME ISTACK, 0, STACK
        ARGFRAME PSTACK, 0, STACK
        ARGFRAME XSTACK, 9, STACK
        ARGFRAME IOVERLAY, 0, STATIC
        ARGFRAME DOVERLAY, 0, STATIC
        FUNCALL I2C_RecvByte, delay_usec
        LOCFRAME ISTACK, 0, STACK
        LOCFRAME PSTACK, 0, STACK
        LOCFRAME XSTACK, 9, STACK
        LOCFRAME IOVERLAY, 0, STATIC
        LOCFRAME DOVERLAY, 0, STATIC
        ARGFRAME ISTACK, 0, STACK
        ARGFRAME PSTACK, 0, STACK
        ARGFRAME XSTACK, 9, STACK
        ARGFRAME IOVERLAY, 0, STATIC
        ARGFRAME DOVERLAY, 0, STATIC
        FUNCALL I2C_RecvByte, WriteSCL_0
        LOCFRAME ISTACK, 0, STACK
        LOCFRAME PSTACK, 0, STACK
        LOCFRAME XSTACK, 9, STACK
        LOCFRAME IOVERLAY, 0, STATIC
        LOCFRAME DOVERLAY, 0, STATIC
        ARGFRAME ISTACK, 0, STACK
        ARGFRAME PSTACK, 0, STACK
        ARGFRAME XSTACK, 9, STACK
        ARGFRAME IOVERLAY, 0, STATIC
        ARGFRAME DOVERLAY, 0, STATIC
        MOV     A,#-0x9
        LCALL   ?BANKED_ENTER_XDATA
        CFI DPH0 load(1, XDATA, add(CFA_XSP16, literal(-1)))
        CFI DPL0 load(1, XDATA, add(CFA_XSP16, literal(-2)))
        CFI ?BRET_EXT load(1, XDATA, add(CFA_XSP16, literal(-3)))
        CFI ?RET_HIGH load(1, XDATA, add(CFA_XSP16, literal(-4)))
        CFI ?RET_LOW load(1, XDATA, add(CFA_XSP16, literal(-5)))
        CFI R7 load(1, XDATA, add(CFA_XSP16, literal(-6)))
        CFI V0 load(1, XDATA, add(CFA_XSP16, literal(-7)))
        CFI VB load(1, XDATA, add(CFA_XSP16, literal(-8)))
        CFI R6 load(1, XDATA, add(CFA_XSP16, literal(-9)))
        CFI CFA_SP SP+0
        CFI CFA_XSP16 add(XSP16, 9)
        ; Saved register size: 9
        ; Auto size: 0
//  176     uchar i;  
//  177     uchar data=0;
        MOV     R6,#0x0
//  178     
//  179     WriteSDA_1();                 //使能内部上拉,准备读取数据
        ; Setup parameters for call to function WriteSDA_1
        LCALL   ??WriteSDA_1?relay
//  180     
//  181     for(i=0;i<8;i++)
        MOV     R7,#0x8
//  182    {
//  183     WriteSCL_0();
??I2C_RecvByte_0:
        ; Setup parameters for call to function WriteSCL_0
        LCALL   ??Subroutine10_0 & 0xFFFF
//  184     delay_usec(50);
//  185     WriteSCL_1();
??CrossCallReturnLabel_33:
        ; Setup parameters for call to function WriteSCL_1
        LCALL   ?Subroutine3 & 0xFFFF
//  186     delay_usec(50);
//  187     
//  188     ReadSDA();
??CrossCallReturnLabel_3:
        ANL     0xfd,#0xbf
//  189     CY=SDA;
        MOV     C,0x80.7
        MOV     0xd0.7,C
//  190     
//  191     if(CY)
        MOV     C,0xd0.7
        MOV     A,R6
        JNC     ??I2C_RecvByte_1
//  192     {
//  193       data=data << 1;
//  194       data=data|0x01;
        CLR     C
        RLC     A
        ORL     A,#0x1
        SJMP    ??I2C_RecvByte_2
//  195     }
//  196     else
//  197       data=data<<1;
??I2C_RecvByte_1:
        CLR     C
        RLC     A
??I2C_RecvByte_2:
        MOV     R6,A
//  198   }
        DEC     R7
        MOV     A,R7
        JNZ     ??I2C_RecvByte_0
//  199   WriteSCL_0();
        ; Setup parameters for call to function WriteSCL_0
        LCALL   ??WriteSCL_0?relay
//  200   SDA_OUT(); 
        ORL     0xfd,#0x80
//  201   return data;
        SJMP    ?Subroutine1
        CFI EndBlock cfiBlock34
        REQUIRE _A_PSW
        REQUIRE _A_P0
        REQUIRE P0DIR
//  202   
//  203   
//  204   
//  205 }
//  206 
//  207 //向I2C设备写入一个字节数据

        RSEG BANKED_CODE:CODE:NOROOT(0)
//  208 void Single_WriteI2C(uchar REG_Address,uchar REG_data)
Single_WriteI2C:
        CFI Block cfiBlock35 Using cfiCommon0
        CFI Function Single_WriteI2C
        CODE
//  209 {
        FUNCALL Single_WriteI2C, I2C_Start
        LOCFRAME ISTACK, 0, STACK
        LOCFRAME PSTACK, 0, STACK
        LOCFRAME XSTACK, 9, STACK
        LOCFRAME IOVERLAY, 0, STATIC
        LOCFRAME DOVERLAY, 0, STATIC
        ARGFRAME ISTACK, 0, STACK
        ARGFRAME PSTACK, 0, STACK
        ARGFRAME XSTACK, 9, STACK
        ARGFRAME IOVERLAY, 0, STATIC
        ARGFRAME DOVERLAY, 0, STATIC
        FUNCALL Single_WriteI2C, I2C_SendByte
        LOCFRAME ISTACK, 0, STACK
        LOCFRAME PSTACK, 0, STACK
        LOCFRAME XSTACK, 9, STACK
        LOCFRAME IOVERLAY, 0, STATIC
        LOCFRAME DOVERLAY, 0, STATIC
        ARGFRAME ISTACK, 0, STACK
        ARGFRAME PSTACK, 0, STACK
        ARGFRAME XSTACK, 9, STACK
        ARGFRAME IOVERLAY, 0, STATIC
        ARGFRAME DOVERLAY, 0, STATIC
        FUNCALL Single_WriteI2C, I2C_SendByte
        LOCFRAME ISTACK, 0, STACK
        LOCFRAME PSTACK, 0, STACK
        LOCFRAME XSTACK, 9, STACK
        LOCFRAME IOVERLAY, 0, STATIC
        LOCFRAME DOVERLAY, 0, STATIC
        ARGFRAME ISTACK, 0, STACK
        ARGFRAME PSTACK, 0, STACK
        ARGFRAME XSTACK, 9, STACK
        ARGFRAME IOVERLAY, 0, STATIC
        ARGFRAME DOVERLAY, 0, STATIC
        FUNCALL Single_WriteI2C, I2C_SendByte
        LOCFRAME ISTACK, 0, STACK
        LOCFRAME PSTACK, 0, STACK
        LOCFRAME XSTACK, 9, STACK
        LOCFRAME IOVERLAY, 0, STATIC
        LOCFRAME DOVERLAY, 0, STATIC
        ARGFRAME ISTACK, 0, STACK
        ARGFRAME PSTACK, 0, STACK
        ARGFRAME XSTACK, 9, STACK
        ARGFRAME IOVERLAY, 0, STATIC
        ARGFRAME DOVERLAY, 0, STATIC
        FUNCALL Single_WriteI2C, I2C_Stop
        LOCFRAME ISTACK, 0, STACK
        LOCFRAME PSTACK, 0, STACK
        LOCFRAME XSTACK, 9, STACK
        LOCFRAME IOVERLAY, 0, STATIC
        LOCFRAME DOVERLAY, 0, STATIC
        ARGFRAME ISTACK, 0, STACK
        ARGFRAME PSTACK, 0, STACK
        ARGFRAME XSTACK, 9, STACK
        ARGFRAME IOVERLAY, 0, STATIC
        ARGFRAME DOVERLAY, 0, STATIC
        MOV     A,#-0x9
        LCALL   ?BANKED_ENTER_XDATA
        CFI DPH0 load(1, XDATA, add(CFA_XSP16, literal(-1)))
        CFI DPL0 load(1, XDATA, add(CFA_XSP16, literal(-2)))
        CFI ?BRET_EXT load(1, XDATA, add(CFA_XSP16, literal(-3)))
        CFI ?RET_HIGH load(1, XDATA, add(CFA_XSP16, literal(-4)))
        CFI ?RET_LOW load(1, XDATA, add(CFA_XSP16, literal(-5)))
        CFI R7 load(1, XDATA, add(CFA_XSP16, literal(-6)))
        CFI V0 load(1, XDATA, add(CFA_XSP16, literal(-7)))
        CFI VB load(1, XDATA, add(CFA_XSP16, literal(-8)))
        CFI R6 load(1, XDATA, add(CFA_XSP16, literal(-9)))
        CFI CFA_SP SP+0
        CFI CFA_XSP16 add(XSP16, 9)
        ; Saved register size: 9
        ; Auto size: 0
        MOV     A,R1
        MOV     R7,A
        MOV     A,R2
        MOV     R6,A
//  210     I2C_Start();                  //起始信号
        ; Setup parameters for call to function I2C_Start
        LCALL   ?Subroutine4 & 0xFFFF
//  211     I2C_SendByte(SlaveAddress);   //发送设备地址+写信号
//  212     I2C_SendByte(REG_Address);    //内部寄存器地址，
//  213     I2C_SendByte(REG_data);       //内部寄存器数据，
??CrossCallReturnLabel_4:
        ; Setup parameters for call to function I2C_SendByte
        MOV     A,R6
        MOV     R1,A
        LCALL   ??I2C_SendByte?relay
//  214     I2C_Stop();                   //发送停止信号
        ; Setup parameters for call to function I2C_Stop
        LCALL   ??I2C_Stop?relay
//  215 
//  216 }
        SJMP    ??Subroutine11_0
        CFI EndBlock cfiBlock35
//  217 
//  218 //从I2C设备读取一个字节数据

        RSEG BANKED_CODE:CODE:NOROOT(0)
//  219 uchar Single_ReadI2C(uchar REG_Address)
Single_ReadI2C:
        CFI Block cfiBlock36 Using cfiCommon0
        CFI Function Single_ReadI2C
        CODE
//  220 {
        FUNCALL Single_ReadI2C, I2C_Start
        LOCFRAME ISTACK, 0, STACK
        LOCFRAME PSTACK, 0, STACK
        LOCFRAME XSTACK, 9, STACK
        LOCFRAME IOVERLAY, 0, STATIC
        LOCFRAME DOVERLAY, 0, STATIC
        ARGFRAME ISTACK, 0, STACK
        ARGFRAME PSTACK, 0, STACK
        ARGFRAME XSTACK, 9, STACK
        ARGFRAME IOVERLAY, 0, STATIC
        ARGFRAME DOVERLAY, 0, STATIC
        FUNCALL Single_ReadI2C, I2C_SendByte
        LOCFRAME ISTACK, 0, STACK
        LOCFRAME PSTACK, 0, STACK
        LOCFRAME XSTACK, 9, STACK
        LOCFRAME IOVERLAY, 0, STATIC
        LOCFRAME DOVERLAY, 0, STATIC
        ARGFRAME ISTACK, 0, STACK
        ARGFRAME PSTACK, 0, STACK
        ARGFRAME XSTACK, 9, STACK
        ARGFRAME IOVERLAY, 0, STATIC
        ARGFRAME DOVERLAY, 0, STATIC
        FUNCALL Single_ReadI2C, I2C_SendByte
        LOCFRAME ISTACK, 0, STACK
        LOCFRAME PSTACK, 0, STACK
        LOCFRAME XSTACK, 9, STACK
        LOCFRAME IOVERLAY, 0, STATIC
        LOCFRAME DOVERLAY, 0, STATIC
        ARGFRAME ISTACK, 0, STACK
        ARGFRAME PSTACK, 0, STACK
        ARGFRAME XSTACK, 9, STACK
        ARGFRAME IOVERLAY, 0, STATIC
        ARGFRAME DOVERLAY, 0, STATIC
        FUNCALL Single_ReadI2C, I2C_Start
        LOCFRAME ISTACK, 0, STACK
        LOCFRAME PSTACK, 0, STACK
        LOCFRAME XSTACK, 9, STACK
        LOCFRAME IOVERLAY, 0, STATIC
        LOCFRAME DOVERLAY, 0, STATIC
        ARGFRAME ISTACK, 0, STACK
        ARGFRAME PSTACK, 0, STACK
        ARGFRAME XSTACK, 9, STACK
        ARGFRAME IOVERLAY, 0, STATIC
        ARGFRAME DOVERLAY, 0, STATIC
        FUNCALL Single_ReadI2C, I2C_SendByte
        LOCFRAME ISTACK, 0, STACK
        LOCFRAME PSTACK, 0, STACK
        LOCFRAME XSTACK, 9, STACK
        LOCFRAME IOVERLAY, 0, STATIC
        LOCFRAME DOVERLAY, 0, STATIC
        ARGFRAME ISTACK, 0, STACK
        ARGFRAME PSTACK, 0, STACK
        ARGFRAME XSTACK, 9, STACK
        ARGFRAME IOVERLAY, 0, STATIC
        ARGFRAME DOVERLAY, 0, STATIC
        FUNCALL Single_ReadI2C, I2C_RecvByte
        LOCFRAME ISTACK, 0, STACK
        LOCFRAME PSTACK, 0, STACK
        LOCFRAME XSTACK, 9, STACK
        LOCFRAME IOVERLAY, 0, STATIC
        LOCFRAME DOVERLAY, 0, STATIC
        ARGFRAME ISTACK, 0, STACK
        ARGFRAME PSTACK, 0, STACK
        ARGFRAME XSTACK, 9, STACK
        ARGFRAME IOVERLAY, 0, STATIC
        ARGFRAME DOVERLAY, 0, STATIC
        FUNCALL Single_ReadI2C, I2C_SendACK
        LOCFRAME ISTACK, 0, STACK
        LOCFRAME PSTACK, 0, STACK
        LOCFRAME XSTACK, 9, STACK
        LOCFRAME IOVERLAY, 0, STATIC
        LOCFRAME DOVERLAY, 0, STATIC
        ARGFRAME ISTACK, 0, STACK
        ARGFRAME PSTACK, 0, STACK
        ARGFRAME XSTACK, 9, STACK
        ARGFRAME IOVERLAY, 0, STATIC
        ARGFRAME DOVERLAY, 0, STATIC
        FUNCALL Single_ReadI2C, I2C_Stop
        LOCFRAME ISTACK, 0, STACK
        LOCFRAME PSTACK, 0, STACK
        LOCFRAME XSTACK, 9, STACK
        LOCFRAME IOVERLAY, 0, STATIC
        LOCFRAME DOVERLAY, 0, STATIC
        ARGFRAME ISTACK, 0, STACK
        ARGFRAME PSTACK, 0, STACK
        ARGFRAME XSTACK, 9, STACK
        ARGFRAME IOVERLAY, 0, STATIC
        ARGFRAME DOVERLAY, 0, STATIC
        MOV     A,#-0x9
        LCALL   ?BANKED_ENTER_XDATA
        CFI DPH0 load(1, XDATA, add(CFA_XSP16, literal(-1)))
        CFI DPL0 load(1, XDATA, add(CFA_XSP16, literal(-2)))
        CFI ?BRET_EXT load(1, XDATA, add(CFA_XSP16, literal(-3)))
        CFI ?RET_HIGH load(1, XDATA, add(CFA_XSP16, literal(-4)))
        CFI ?RET_LOW load(1, XDATA, add(CFA_XSP16, literal(-5)))
        CFI R7 load(1, XDATA, add(CFA_XSP16, literal(-6)))
        CFI V0 load(1, XDATA, add(CFA_XSP16, literal(-7)))
        CFI VB load(1, XDATA, add(CFA_XSP16, literal(-8)))
        CFI R6 load(1, XDATA, add(CFA_XSP16, literal(-9)))
        CFI CFA_SP SP+0
        CFI CFA_XSP16 add(XSP16, 9)
        ; Saved register size: 9
        ; Auto size: 0
        MOV     A,R1
        MOV     R7,A
//  221 	uchar REG_data;
//  222 	I2C_Start();                   //起始信号
        ; Setup parameters for call to function I2C_Start
        LCALL   ?Subroutine4 & 0xFFFF
//  223 	I2C_SendByte(SlaveAddress);    //发送设备地址+写信号
//  224 	I2C_SendByte(REG_Address);     //发送存储单元地址，从0开始	
//  225 	I2C_Start();                   //起始信号
??CrossCallReturnLabel_5:
        ; Setup parameters for call to function I2C_Start
        LCALL   ??I2C_Start?relay
//  226 	I2C_SendByte(SlaveAddress+1);  //发送设备地址+读信号
        ; Setup parameters for call to function I2C_SendByte
        MOV     R1,#-0x2f
        LCALL   ??I2C_SendByte?relay
//  227 	REG_data=I2C_RecvByte();       //读出寄存器数据
        ; Setup parameters for call to function I2C_RecvByte
        LCALL   ??I2C_RecvByte?relay
        MOV     A,R1
        MOV     R6,A
//  228 	I2C_SendACK(1);                //接收应答信号
        ; Setup parameters for call to function I2C_SendACK
        MOV     R1,#0x1
        LCALL   ??I2C_SendACK?relay
//  229 	I2C_Stop();                    //停止信号
        ; Setup parameters for call to function I2C_Stop
        LCALL   ??I2C_Stop?relay
//  230 	return REG_data;
        SJMP    ?Subroutine1
        CFI EndBlock cfiBlock36
//  231 }

        RSEG BANKED_CODE:CODE:NOROOT(0)
?Subroutine4:
        CFI Block cfiCond37 Using cfiCommon0
        CFI NoFunction
        CFI Conditional ??CrossCallReturnLabel_4
        CFI R6 load(1, XDATA, add(CFA_XSP16, literal(-9)))
        CFI VB load(1, XDATA, add(CFA_XSP16, literal(-8)))
        CFI V0 load(1, XDATA, add(CFA_XSP16, literal(-7)))
        CFI R7 load(1, XDATA, add(CFA_XSP16, literal(-6)))
        CFI ?RET_LOW load(1, XDATA, add(CFA_XSP16, literal(-5)))
        CFI ?RET_HIGH load(1, XDATA, add(CFA_XSP16, literal(-4)))
        CFI ?BRET_EXT load(1, XDATA, add(CFA_XSP16, literal(-3)))
        CFI DPL0 load(1, XDATA, add(CFA_XSP16, literal(-2)))
        CFI DPH0 load(1, XDATA, add(CFA_XSP16, literal(-1)))
        CFI CFA_SP SP+0
        CFI CFA_XSP16 add(XSP16, 9)
        CFI Block cfiCond38 Using cfiCommon0
        CFI (cfiCond38) NoFunction
        CFI (cfiCond38) Conditional ??CrossCallReturnLabel_5
        CFI (cfiCond38) R6 load(1, XDATA, add(CFA_XSP16, literal(-9)))
        CFI (cfiCond38) VB load(1, XDATA, add(CFA_XSP16, literal(-8)))
        CFI (cfiCond38) V0 load(1, XDATA, add(CFA_XSP16, literal(-7)))
        CFI (cfiCond38) R7 load(1, XDATA, add(CFA_XSP16, literal(-6)))
        CFI (cfiCond38) ?RET_LOW load(1, XDATA, add(CFA_XSP16, literal(-5)))
        CFI (cfiCond38) ?RET_HIGH load(1, XDATA, add(CFA_XSP16, literal(-4)))
        CFI (cfiCond38) ?BRET_EXT load(1, XDATA, add(CFA_XSP16, literal(-3)))
        CFI (cfiCond38) DPL0 load(1, XDATA, add(CFA_XSP16, literal(-2)))
        CFI (cfiCond38) DPH0 load(1, XDATA, add(CFA_XSP16, literal(-1)))
        CFI (cfiCond38) CFA_SP SP+0
        CFI (cfiCond38) CFA_XSP16 add(XSP16, 9)
        CFI Block cfiPicker39 Using cfiCommon1
        CFI (cfiPicker39) NoFunction
        CFI (cfiPicker39) Picker
        LCALL   ??I2C_Start?relay
        ; Setup parameters for call to function I2C_SendByte
        ; Setup parameters for call to function I2C_SendByte
        MOV     R1,#-0x30
        LCALL   ??I2C_SendByte?relay
        ; Setup parameters for call to function I2C_SendByte
        ; Setup parameters for call to function I2C_SendByte
        MOV     A,R7
        MOV     R1,A
        LCALL   ??I2C_SendByte?relay
        RET
        CFI EndBlock cfiCond37
        CFI EndBlock cfiCond38
        CFI EndBlock cfiPicker39
//  232 
//  233 //初始化MPU6050

        RSEG BANKED_CODE:CODE:NOROOT(0)
//  234 void InitMPU6050()
InitMPU6050:
        CFI Block cfiBlock40 Using cfiCommon0
        CFI Function InitMPU6050
        CODE
//  235 {
        FUNCALL InitMPU6050, Single_WriteI2C
        LOCFRAME ISTACK, 2, STACK
        LOCFRAME PSTACK, 0, STACK
        LOCFRAME XSTACK, 0, STACK
        LOCFRAME IOVERLAY, 0, STATIC
        LOCFRAME DOVERLAY, 0, STATIC
        ARGFRAME ISTACK, 2, STACK
        ARGFRAME PSTACK, 0, STACK
        ARGFRAME XSTACK, 0, STACK
        ARGFRAME IOVERLAY, 0, STATIC
        ARGFRAME DOVERLAY, 0, STATIC
        FUNCALL InitMPU6050, Single_WriteI2C
        LOCFRAME ISTACK, 2, STACK
        LOCFRAME PSTACK, 0, STACK
        LOCFRAME XSTACK, 0, STACK
        LOCFRAME IOVERLAY, 0, STATIC
        LOCFRAME DOVERLAY, 0, STATIC
        ARGFRAME ISTACK, 2, STACK
        ARGFRAME PSTACK, 0, STACK
        ARGFRAME XSTACK, 0, STACK
        ARGFRAME IOVERLAY, 0, STATIC
        ARGFRAME DOVERLAY, 0, STATIC
        FUNCALL InitMPU6050, Single_WriteI2C
        LOCFRAME ISTACK, 2, STACK
        LOCFRAME PSTACK, 0, STACK
        LOCFRAME XSTACK, 0, STACK
        LOCFRAME IOVERLAY, 0, STATIC
        LOCFRAME DOVERLAY, 0, STATIC
        ARGFRAME ISTACK, 2, STACK
        ARGFRAME PSTACK, 0, STACK
        ARGFRAME XSTACK, 0, STACK
        ARGFRAME IOVERLAY, 0, STATIC
        ARGFRAME DOVERLAY, 0, STATIC
        FUNCALL InitMPU6050, Single_WriteI2C
        LOCFRAME ISTACK, 2, STACK
        LOCFRAME PSTACK, 0, STACK
        LOCFRAME XSTACK, 0, STACK
        LOCFRAME IOVERLAY, 0, STATIC
        LOCFRAME DOVERLAY, 0, STATIC
        ARGFRAME ISTACK, 2, STACK
        ARGFRAME PSTACK, 0, STACK
        ARGFRAME XSTACK, 0, STACK
        ARGFRAME IOVERLAY, 0, STATIC
        ARGFRAME DOVERLAY, 0, STATIC
        FUNCALL InitMPU6050, Single_WriteI2C
        LOCFRAME ISTACK, 2, STACK
        LOCFRAME PSTACK, 0, STACK
        LOCFRAME XSTACK, 0, STACK
        LOCFRAME IOVERLAY, 0, STATIC
        LOCFRAME DOVERLAY, 0, STATIC
        ARGFRAME ISTACK, 2, STACK
        ARGFRAME PSTACK, 0, STACK
        ARGFRAME XSTACK, 0, STACK
        ARGFRAME IOVERLAY, 0, STATIC
        ARGFRAME DOVERLAY, 0, STATIC
        PUSH    DPL
        CFI DPL0 Frame(CFA_SP, 4)
        CFI CFA_SP SP+-4
        PUSH    DPH
        CFI DPH0 Frame(CFA_SP, 5)
        CFI CFA_SP SP+-5
        ; Saved register size: 2
        ; Auto size: 0
//  236 	Single_WriteI2C(PWR_MGMT_1,0x00);	//解除休眠状态
        ; Setup parameters for call to function Single_WriteI2C
        MOV     R2,#0x0
        MOV     R1,#0x6b
        LCALL   ??Single_WriteI2C?relay
//  237 	Single_WriteI2C(SMPLRT_DIV,0x07);
        ; Setup parameters for call to function Single_WriteI2C
        MOV     R2,#0x7
        MOV     R1,#0x19
        LCALL   ??Single_WriteI2C?relay
//  238 	Single_WriteI2C(CONFIG,0x06);
        ; Setup parameters for call to function Single_WriteI2C
        MOV     R2,#0x6
        MOV     R1,#0x1a
        LCALL   ??Single_WriteI2C?relay
//  239 	Single_WriteI2C(GYRO_CONFIG,0x18);
        ; Setup parameters for call to function Single_WriteI2C
        MOV     R2,#0x18
        MOV     R1,#0x1b
        LCALL   ??Single_WriteI2C?relay
//  240 	Single_WriteI2C(ACCEL_CONFIG,0x01);
        ; Setup parameters for call to function Single_WriteI2C
        MOV     R2,#0x1
        MOV     R1,#0x1c
        LCALL   ??Single_WriteI2C?relay
//  241 }
        LJMP    ?Subroutine0 & 0xFFFF
        CFI EndBlock cfiBlock40
//  242 
//  243 //*********************************************************

        RSEG BANKED_CODE:CODE:NOROOT(0)
//  244 void Multiple_read_MPU6050(void)
Multiple_read_MPU6050:
        CFI Block cfiBlock41 Using cfiCommon0
        CFI Function Multiple_read_MPU6050
        CODE
//  245 {   
        FUNCALL Multiple_read_MPU6050, Single_ReadI2C
        LOCFRAME ISTACK, 0, STACK
        LOCFRAME PSTACK, 0, STACK
        LOCFRAME XSTACK, 34, STACK
        LOCFRAME IOVERLAY, 0, STATIC
        LOCFRAME DOVERLAY, 0, STATIC
        ARGFRAME ISTACK, 0, STACK
        ARGFRAME PSTACK, 0, STACK
        ARGFRAME XSTACK, 34, STACK
        ARGFRAME IOVERLAY, 0, STATIC
        ARGFRAME DOVERLAY, 0, STATIC
        FUNCALL Multiple_read_MPU6050, Single_ReadI2C
        LOCFRAME ISTACK, 0, STACK
        LOCFRAME PSTACK, 0, STACK
        LOCFRAME XSTACK, 34, STACK
        LOCFRAME IOVERLAY, 0, STATIC
        LOCFRAME DOVERLAY, 0, STATIC
        ARGFRAME ISTACK, 0, STACK
        ARGFRAME PSTACK, 0, STACK
        ARGFRAME XSTACK, 34, STACK
        ARGFRAME IOVERLAY, 0, STATIC
        ARGFRAME DOVERLAY, 0, STATIC
        FUNCALL Multiple_read_MPU6050, Single_ReadI2C
        LOCFRAME ISTACK, 0, STACK
        LOCFRAME PSTACK, 0, STACK
        LOCFRAME XSTACK, 34, STACK
        LOCFRAME IOVERLAY, 0, STATIC
        LOCFRAME DOVERLAY, 0, STATIC
        ARGFRAME ISTACK, 0, STACK
        ARGFRAME PSTACK, 0, STACK
        ARGFRAME XSTACK, 34, STACK
        ARGFRAME IOVERLAY, 0, STATIC
        ARGFRAME DOVERLAY, 0, STATIC
        FUNCALL Multiple_read_MPU6050, Single_ReadI2C
        LOCFRAME ISTACK, 0, STACK
        LOCFRAME PSTACK, 0, STACK
        LOCFRAME XSTACK, 34, STACK
        LOCFRAME IOVERLAY, 0, STATIC
        LOCFRAME DOVERLAY, 0, STATIC
        ARGFRAME ISTACK, 0, STACK
        ARGFRAME PSTACK, 0, STACK
        ARGFRAME XSTACK, 34, STACK
        ARGFRAME IOVERLAY, 0, STATIC
        ARGFRAME DOVERLAY, 0, STATIC
        FUNCALL Multiple_read_MPU6050, Single_ReadI2C
        LOCFRAME ISTACK, 0, STACK
        LOCFRAME PSTACK, 0, STACK
        LOCFRAME XSTACK, 34, STACK
        LOCFRAME IOVERLAY, 0, STATIC
        LOCFRAME DOVERLAY, 0, STATIC
        ARGFRAME ISTACK, 0, STACK
        ARGFRAME PSTACK, 0, STACK
        ARGFRAME XSTACK, 34, STACK
        ARGFRAME IOVERLAY, 0, STATIC
        ARGFRAME DOVERLAY, 0, STATIC
        FUNCALL Multiple_read_MPU6050, Single_ReadI2C
        LOCFRAME ISTACK, 0, STACK
        LOCFRAME PSTACK, 0, STACK
        LOCFRAME XSTACK, 34, STACK
        LOCFRAME IOVERLAY, 0, STATIC
        LOCFRAME DOVERLAY, 0, STATIC
        ARGFRAME ISTACK, 0, STACK
        ARGFRAME PSTACK, 0, STACK
        ARGFRAME XSTACK, 34, STACK
        ARGFRAME IOVERLAY, 0, STATIC
        ARGFRAME DOVERLAY, 0, STATIC
        FUNCALL Multiple_read_MPU6050, Single_ReadI2C
        LOCFRAME ISTACK, 0, STACK
        LOCFRAME PSTACK, 0, STACK
        LOCFRAME XSTACK, 34, STACK
        LOCFRAME IOVERLAY, 0, STATIC
        LOCFRAME DOVERLAY, 0, STATIC
        ARGFRAME ISTACK, 0, STACK
        ARGFRAME PSTACK, 0, STACK
        ARGFRAME XSTACK, 34, STACK
        ARGFRAME IOVERLAY, 0, STATIC
        ARGFRAME DOVERLAY, 0, STATIC
        FUNCALL Multiple_read_MPU6050, Single_ReadI2C
        LOCFRAME ISTACK, 0, STACK
        LOCFRAME PSTACK, 0, STACK
        LOCFRAME XSTACK, 34, STACK
        LOCFRAME IOVERLAY, 0, STATIC
        LOCFRAME DOVERLAY, 0, STATIC
        ARGFRAME ISTACK, 0, STACK
        ARGFRAME PSTACK, 0, STACK
        ARGFRAME XSTACK, 34, STACK
        ARGFRAME IOVERLAY, 0, STATIC
        ARGFRAME DOVERLAY, 0, STATIC
        FUNCALL Multiple_read_MPU6050, Single_ReadI2C
        LOCFRAME ISTACK, 0, STACK
        LOCFRAME PSTACK, 0, STACK
        LOCFRAME XSTACK, 34, STACK
        LOCFRAME IOVERLAY, 0, STATIC
        LOCFRAME DOVERLAY, 0, STATIC
        ARGFRAME ISTACK, 0, STACK
        ARGFRAME PSTACK, 0, STACK
        ARGFRAME XSTACK, 34, STACK
        ARGFRAME IOVERLAY, 0, STATIC
        ARGFRAME DOVERLAY, 0, STATIC
        FUNCALL Multiple_read_MPU6050, Single_ReadI2C
        LOCFRAME ISTACK, 0, STACK
        LOCFRAME PSTACK, 0, STACK
        LOCFRAME XSTACK, 34, STACK
        LOCFRAME IOVERLAY, 0, STATIC
        LOCFRAME DOVERLAY, 0, STATIC
        ARGFRAME ISTACK, 0, STACK
        ARGFRAME PSTACK, 0, STACK
        ARGFRAME XSTACK, 34, STACK
        ARGFRAME IOVERLAY, 0, STATIC
        ARGFRAME DOVERLAY, 0, STATIC
        FUNCALL Multiple_read_MPU6050, Single_ReadI2C
        LOCFRAME ISTACK, 0, STACK
        LOCFRAME PSTACK, 0, STACK
        LOCFRAME XSTACK, 34, STACK
        LOCFRAME IOVERLAY, 0, STATIC
        LOCFRAME DOVERLAY, 0, STATIC
        ARGFRAME ISTACK, 0, STACK
        ARGFRAME PSTACK, 0, STACK
        ARGFRAME XSTACK, 34, STACK
        ARGFRAME IOVERLAY, 0, STATIC
        ARGFRAME DOVERLAY, 0, STATIC
        FUNCALL Multiple_read_MPU6050, Single_ReadI2C
        LOCFRAME ISTACK, 0, STACK
        LOCFRAME PSTACK, 0, STACK
        LOCFRAME XSTACK, 34, STACK
        LOCFRAME IOVERLAY, 0, STATIC
        LOCFRAME DOVERLAY, 0, STATIC
        ARGFRAME ISTACK, 0, STACK
        ARGFRAME PSTACK, 0, STACK
        ARGFRAME XSTACK, 34, STACK
        ARGFRAME IOVERLAY, 0, STATIC
        ARGFRAME DOVERLAY, 0, STATIC
        FUNCALL Multiple_read_MPU6050, type_change
        LOCFRAME ISTACK, 0, STACK
        LOCFRAME PSTACK, 0, STACK
        LOCFRAME XSTACK, 34, STACK
        LOCFRAME IOVERLAY, 0, STATIC
        LOCFRAME DOVERLAY, 0, STATIC
        ARGFRAME ISTACK, 0, STACK
        ARGFRAME PSTACK, 0, STACK
        ARGFRAME XSTACK, 34, STACK
        ARGFRAME IOVERLAY, 0, STATIC
        ARGFRAME DOVERLAY, 0, STATIC
        FUNCALL Multiple_read_MPU6050, HalUARTWrite
        LOCFRAME ISTACK, 0, STACK
        LOCFRAME PSTACK, 0, STACK
        LOCFRAME XSTACK, 34, STACK
        LOCFRAME IOVERLAY, 0, STATIC
        LOCFRAME DOVERLAY, 0, STATIC
        ARGFRAME ISTACK, 0, STACK
        ARGFRAME PSTACK, 0, STACK
        ARGFRAME XSTACK, 34, STACK
        ARGFRAME IOVERLAY, 0, STATIC
        ARGFRAME DOVERLAY, 0, STATIC
        FUNCALL Multiple_read_MPU6050, type_change
        LOCFRAME ISTACK, 0, STACK
        LOCFRAME PSTACK, 0, STACK
        LOCFRAME XSTACK, 34, STACK
        LOCFRAME IOVERLAY, 0, STATIC
        LOCFRAME DOVERLAY, 0, STATIC
        ARGFRAME ISTACK, 0, STACK
        ARGFRAME PSTACK, 0, STACK
        ARGFRAME XSTACK, 34, STACK
        ARGFRAME IOVERLAY, 0, STATIC
        ARGFRAME DOVERLAY, 0, STATIC
        FUNCALL Multiple_read_MPU6050, HalUARTWrite
        LOCFRAME ISTACK, 0, STACK
        LOCFRAME PSTACK, 0, STACK
        LOCFRAME XSTACK, 34, STACK
        LOCFRAME IOVERLAY, 0, STATIC
        LOCFRAME DOVERLAY, 0, STATIC
        ARGFRAME ISTACK, 0, STACK
        ARGFRAME PSTACK, 0, STACK
        ARGFRAME XSTACK, 34, STACK
        ARGFRAME IOVERLAY, 0, STATIC
        ARGFRAME DOVERLAY, 0, STATIC
        FUNCALL Multiple_read_MPU6050, type_change
        LOCFRAME ISTACK, 0, STACK
        LOCFRAME PSTACK, 0, STACK
        LOCFRAME XSTACK, 34, STACK
        LOCFRAME IOVERLAY, 0, STATIC
        LOCFRAME DOVERLAY, 0, STATIC
        ARGFRAME ISTACK, 0, STACK
        ARGFRAME PSTACK, 0, STACK
        ARGFRAME XSTACK, 34, STACK
        ARGFRAME IOVERLAY, 0, STATIC
        ARGFRAME DOVERLAY, 0, STATIC
        FUNCALL Multiple_read_MPU6050, HalUARTWrite
        LOCFRAME ISTACK, 0, STACK
        LOCFRAME PSTACK, 0, STACK
        LOCFRAME XSTACK, 34, STACK
        LOCFRAME IOVERLAY, 0, STATIC
        LOCFRAME DOVERLAY, 0, STATIC
        ARGFRAME ISTACK, 0, STACK
        ARGFRAME PSTACK, 0, STACK
        ARGFRAME XSTACK, 34, STACK
        ARGFRAME IOVERLAY, 0, STATIC
        ARGFRAME DOVERLAY, 0, STATIC
        FUNCALL Multiple_read_MPU6050, type_change
        LOCFRAME ISTACK, 0, STACK
        LOCFRAME PSTACK, 0, STACK
        LOCFRAME XSTACK, 34, STACK
        LOCFRAME IOVERLAY, 0, STATIC
        LOCFRAME DOVERLAY, 0, STATIC
        ARGFRAME ISTACK, 0, STACK
        ARGFRAME PSTACK, 0, STACK
        ARGFRAME XSTACK, 34, STACK
        ARGFRAME IOVERLAY, 0, STATIC
        ARGFRAME DOVERLAY, 0, STATIC
        FUNCALL Multiple_read_MPU6050, HalUARTWrite
        LOCFRAME ISTACK, 0, STACK
        LOCFRAME PSTACK, 0, STACK
        LOCFRAME XSTACK, 34, STACK
        LOCFRAME IOVERLAY, 0, STATIC
        LOCFRAME DOVERLAY, 0, STATIC
        ARGFRAME ISTACK, 0, STACK
        ARGFRAME PSTACK, 0, STACK
        ARGFRAME XSTACK, 34, STACK
        ARGFRAME IOVERLAY, 0, STATIC
        ARGFRAME DOVERLAY, 0, STATIC
        FUNCALL Multiple_read_MPU6050, type_change
        LOCFRAME ISTACK, 0, STACK
        LOCFRAME PSTACK, 0, STACK
        LOCFRAME XSTACK, 34, STACK
        LOCFRAME IOVERLAY, 0, STATIC
        LOCFRAME DOVERLAY, 0, STATIC
        ARGFRAME ISTACK, 0, STACK
        ARGFRAME PSTACK, 0, STACK
        ARGFRAME XSTACK, 34, STACK
        ARGFRAME IOVERLAY, 0, STATIC
        ARGFRAME DOVERLAY, 0, STATIC
        FUNCALL Multiple_read_MPU6050, HalUARTWrite
        LOCFRAME ISTACK, 0, STACK
        LOCFRAME PSTACK, 0, STACK
        LOCFRAME XSTACK, 34, STACK
        LOCFRAME IOVERLAY, 0, STATIC
        LOCFRAME DOVERLAY, 0, STATIC
        ARGFRAME ISTACK, 0, STACK
        ARGFRAME PSTACK, 0, STACK
        ARGFRAME XSTACK, 34, STACK
        ARGFRAME IOVERLAY, 0, STATIC
        ARGFRAME DOVERLAY, 0, STATIC
        FUNCALL Multiple_read_MPU6050, type_change
        LOCFRAME ISTACK, 0, STACK
        LOCFRAME PSTACK, 0, STACK
        LOCFRAME XSTACK, 34, STACK
        LOCFRAME IOVERLAY, 0, STATIC
        LOCFRAME DOVERLAY, 0, STATIC
        ARGFRAME ISTACK, 0, STACK
        ARGFRAME PSTACK, 0, STACK
        ARGFRAME XSTACK, 34, STACK
        ARGFRAME IOVERLAY, 0, STATIC
        ARGFRAME DOVERLAY, 0, STATIC
        FUNCALL Multiple_read_MPU6050, HalUARTWrite
        LOCFRAME ISTACK, 0, STACK
        LOCFRAME PSTACK, 0, STACK
        LOCFRAME XSTACK, 34, STACK
        LOCFRAME IOVERLAY, 0, STATIC
        LOCFRAME DOVERLAY, 0, STATIC
        ARGFRAME ISTACK, 0, STACK
        ARGFRAME PSTACK, 0, STACK
        ARGFRAME XSTACK, 34, STACK
        ARGFRAME IOVERLAY, 0, STATIC
        ARGFRAME DOVERLAY, 0, STATIC
        MOV     A,#-0x16
        LCALL   ?BANKED_ENTER_XDATA
        CFI DPH0 load(1, XDATA, add(CFA_XSP16, literal(-1)))
        CFI DPL0 load(1, XDATA, add(CFA_XSP16, literal(-2)))
        CFI ?BRET_EXT load(1, XDATA, add(CFA_XSP16, literal(-3)))
        CFI ?RET_HIGH load(1, XDATA, add(CFA_XSP16, literal(-4)))
        CFI ?RET_LOW load(1, XDATA, add(CFA_XSP16, literal(-5)))
        CFI R7 load(1, XDATA, add(CFA_XSP16, literal(-6)))
        CFI V13 load(1, XDATA, add(CFA_XSP16, literal(-7)))
        CFI V12 load(1, XDATA, add(CFA_XSP16, literal(-8)))
        CFI V11 load(1, XDATA, add(CFA_XSP16, literal(-9)))
        CFI V10 load(1, XDATA, add(CFA_XSP16, literal(-10)))
        CFI V9 load(1, XDATA, add(CFA_XSP16, literal(-11)))
        CFI V8 load(1, XDATA, add(CFA_XSP16, literal(-12)))
        CFI V7 load(1, XDATA, add(CFA_XSP16, literal(-13)))
        CFI V6 load(1, XDATA, add(CFA_XSP16, literal(-14)))
        CFI V5 load(1, XDATA, add(CFA_XSP16, literal(-15)))
        CFI V4 load(1, XDATA, add(CFA_XSP16, literal(-16)))
        CFI V3 load(1, XDATA, add(CFA_XSP16, literal(-17)))
        CFI V2 load(1, XDATA, add(CFA_XSP16, literal(-18)))
        CFI V1 load(1, XDATA, add(CFA_XSP16, literal(-19)))
        CFI V0 load(1, XDATA, add(CFA_XSP16, literal(-20)))
        CFI VB load(1, XDATA, add(CFA_XSP16, literal(-21)))
        CFI R6 load(1, XDATA, add(CFA_XSP16, literal(-22)))
        CFI CFA_SP SP+0
        CFI CFA_XSP16 add(XSP16, 22)
        ; Saved register size: 22
        ; Auto size: 12
        MOV     A,#-0xc
        LCALL   ?ALLOC_XSTACK8
        CFI CFA_XSP16 add(XSP16, 34)
//  246   char BUF[12]; //接收数据缓存区  
//  247   BUF[0]=Single_ReadI2C(ACCEL_XOUT_H);
        ; Setup parameters for call to function Single_ReadI2C
        MOV     R1,#0x3b
        LCALL   ?Subroutine5 & 0xFFFF
??CrossCallReturnLabel_6:
        MOV     DPL,?XSP + 0
        MOV     DPH,?XSP + 1
        MOVX    @DPTR,A
//  248   BUF[1]=Single_ReadI2C(ACCEL_XOUT_L);
        ; Setup parameters for call to function Single_ReadI2C
        MOV     R1,#0x3c
        LCALL   ?Subroutine5 & 0xFFFF
??CrossCallReturnLabel_7:
        MOV     ?V0 + 4,A
        MOV     A,#0x1
        LCALL   ?XSTACK_DISP0_8
        MOV     A,R1
        MOVX    @DPTR,A
//  249   BUF[2]=Single_ReadI2C(ACCEL_YOUT_H);
        ; Setup parameters for call to function Single_ReadI2C
        MOV     R1,#0x3d
        LCALL   ?Subroutine5 & 0xFFFF
??CrossCallReturnLabel_8:
        MOV     ?V0 + 2,A
        MOV     A,#0x2
        LCALL   ?XSTACK_DISP0_8
        MOV     A,R1
        MOVX    @DPTR,A
//  250   BUF[3]=Single_ReadI2C(ACCEL_YOUT_L);
        ; Setup parameters for call to function Single_ReadI2C
        MOV     R1,#0x3e
        LCALL   ?Subroutine5 & 0xFFFF
??CrossCallReturnLabel_9:
        MOV     ?V0 + 3,A
        MOV     A,#0x3
        LCALL   ?XSTACK_DISP0_8
        MOV     A,R1
        MOVX    @DPTR,A
//  251   BUF[4]=Single_ReadI2C(ACCEL_ZOUT_H);
        ; Setup parameters for call to function Single_ReadI2C
        MOV     R1,#0x3f
        LCALL   ?Subroutine5 & 0xFFFF
??CrossCallReturnLabel_10:
        MOV     ?V0 + 1,A
        MOV     A,#0x4
        LCALL   ?XSTACK_DISP0_8
        MOV     A,R1
        MOVX    @DPTR,A
//  252   BUF[5]=Single_ReadI2C(ACCEL_ZOUT_L);
        ; Setup parameters for call to function Single_ReadI2C
        MOV     R1,#0x40
        LCALL   ?Subroutine5 & 0xFFFF
??CrossCallReturnLabel_11:
        MOV     ?V0 + 10,A
        MOV     A,#0x5
        LCALL   ?XSTACK_DISP0_8
        MOV     A,R1
        MOVX    @DPTR,A
//  253   
//  254   BUF[6]=Single_ReadI2C(GYRO_XOUT_H);
        ; Setup parameters for call to function Single_ReadI2C
        MOV     R1,#0x43
        LCALL   ?Subroutine5 & 0xFFFF
??CrossCallReturnLabel_12:
        MOV     ?V0 + 0,A
        MOV     A,#0x6
        LCALL   ?XSTACK_DISP0_8
        MOV     A,R1
        MOVX    @DPTR,A
//  255   BUF[7]=Single_ReadI2C(GYRO_XOUT_L);
        ; Setup parameters for call to function Single_ReadI2C
        MOV     R1,#0x44
        LCALL   ?Subroutine5 & 0xFFFF
??CrossCallReturnLabel_13:
        MOV     ?V0 + 8,A
        MOV     A,#0x7
        LCALL   ?XSTACK_DISP0_8
        MOV     A,R1
        MOVX    @DPTR,A
//  256   BUF[8]=Single_ReadI2C(GYRO_YOUT_H);
        ; Setup parameters for call to function Single_ReadI2C
        MOV     R1,#0x45
        LCALL   ?Subroutine5 & 0xFFFF
??CrossCallReturnLabel_14:
        MOV     R7,A
        MOV     A,#0x8
        LCALL   ?XSTACK_DISP0_8
        MOV     A,R1
        MOVX    @DPTR,A
//  257   BUF[9]=Single_ReadI2C(GYRO_YOUT_L);
        ; Setup parameters for call to function Single_ReadI2C
        MOV     R1,#0x46
        LCALL   ?Subroutine5 & 0xFFFF
??CrossCallReturnLabel_15:
        MOV     ?V0 + 6,A
        MOV     A,#0x9
        LCALL   ?XSTACK_DISP0_8
        MOV     A,R1
        MOVX    @DPTR,A
//  258   BUF[10]=Single_ReadI2C(GYRO_ZOUT_H);
        ; Setup parameters for call to function Single_ReadI2C
        MOV     R1,#0x47
        LCALL   ?Subroutine5 & 0xFFFF
??CrossCallReturnLabel_16:
        MOV     R6,A
        MOV     A,#0xa
        LCALL   ?XSTACK_DISP0_8
        MOV     A,R1
        MOVX    @DPTR,A
//  259   BUF[11]=Single_ReadI2C(GYRO_ZOUT_L);
        ; Setup parameters for call to function Single_ReadI2C
        MOV     R1,#0x48
        LCALL   ?Subroutine5 & 0xFFFF
??CrossCallReturnLabel_17:
        MOV     ?V0 + 12,A
        MOV     A,#0xb
        LCALL   ?XSTACK_DISP0_8
        MOV     A,R1
        MOVX    @DPTR,A
//  260   
//  261   accX=(BUF[0]<<8)|BUF[1]; 
        MOV     DPL,?XSP + 0
        MOV     DPH,?XSP + 1
        MOVX    A,@DPTR
        MOV     R1,A
        MOV     A,?V0 + 4
        MOV     DPTR,#accX
        MOVX    @DPTR,A
        INC     DPTR
        MOV     A,R1
        MOVX    @DPTR,A
//  262   accY=(BUF[2]<<8)|BUF[3]; 
        MOV     R1,?V0 + 2
        MOV     ?V0 + 2,?V0 + 3
        MOV     A,?V0 + 2
        MOV     DPTR,#accY
        MOVX    @DPTR,A
        INC     DPTR
        MOV     A,R1
        MOVX    @DPTR,A
//  263   accZ=(BUF[4]<<8)|BUF[5]; 
        MOV     A,?V0 + 10
        MOV     DPTR,#accZ
        MOVX    @DPTR,A
        INC     DPTR
        MOV     A,?V0 + 1
        MOVX    @DPTR,A
//  264   graX=(BUF[6]<<8)|BUF[7];
        MOV     A,?V0 + 8
        MOV     DPTR,#graX
        MOVX    @DPTR,A
        INC     DPTR
        MOV     A,?V0 + 0
        MOVX    @DPTR,A
//  265   graY=(BUF[8]<<8)|BUF[9];
        MOV     A,R7
        MOV     R1,A
        MOV     A,?V0 + 6
        MOV     DPTR,#graY
        MOVX    @DPTR,A
        INC     DPTR
        MOV     A,R1
        MOVX    @DPTR,A
//  266   graZ=(BUF[10]<<8)|BUF[11];
        MOV     A,R6
        MOV     R1,A
        MOV     A,?V0 + 12
        MOV     DPTR,#graZ
        MOVX    @DPTR,A
        INC     DPTR
        MOV     A,R1
        MOVX    @DPTR,A
//  267    
//  268   type_change(accX);
        ; Setup parameters for call to function type_change
        MOV     DPTR,#accX
        LCALL   ?Subroutine7 & 0xFFFF
//  269   HalUARTWrite(0,"  ",2);
//  270   type_change(accY);
??CrossCallReturnLabel_22:
        ; Setup parameters for call to function type_change
        MOV     DPTR,#accY
        LCALL   ?Subroutine7 & 0xFFFF
//  271   HalUARTWrite(0,"  ",2);
//  272   type_change(accZ);
??CrossCallReturnLabel_23:
        ; Setup parameters for call to function type_change
        MOV     DPTR,#accZ
        LCALL   ?Subroutine7 & 0xFFFF
//  273   HalUARTWrite(0,"  ",2);
//  274 
//  275   type_change(graX);
??CrossCallReturnLabel_24:
        ; Setup parameters for call to function type_change
        MOV     DPTR,#graX
        LCALL   ?Subroutine7 & 0xFFFF
//  276   HalUARTWrite(0,"  ",2);
//  277   type_change(graY);
??CrossCallReturnLabel_25:
        ; Setup parameters for call to function type_change
        MOV     DPTR,#graY
        LCALL   ?Subroutine7 & 0xFFFF
//  278   HalUARTWrite(0,"  ",2);
//  279   type_change(graZ);
??CrossCallReturnLabel_26:
        ; Setup parameters for call to function type_change
        MOV     DPTR,#graZ
        LCALL   ?Subroutine8 & 0xFFFF
//  280   HalUARTWrite(0,"\n",1);
??CrossCallReturnLabel_27:
        ; Setup parameters for call to function HalUARTWrite
        MOV     R4,#0x1
        MOV     R5,#0x0
        MOV     R2,#`?<Constant "\\n">` & 0xff
        MOV     R3,#(`?<Constant "\\n">` >> 8) & 0xff
        MOV     R1,#0x0
        LCALL   ??HalUARTWrite?relay
//  281 }
        MOV     A,#0xc
        LCALL   ?DEALLOC_XSTACK8
        CFI CFA_XSP16 add(XSP16, 22)
        MOV     R7,#0xe
        LJMP    ?BANKED_LEAVE_XDATA
        CFI EndBlock cfiBlock41

        RSEG BANKED_CODE:CODE:NOROOT(0)
?Subroutine7:
        CFI Block cfiCond42 Using cfiCommon0
        CFI NoFunction
        CFI Conditional ??CrossCallReturnLabel_22
        CFI R6 load(1, XDATA, add(CFA_XSP16, literal(-22)))
        CFI VB load(1, XDATA, add(CFA_XSP16, literal(-21)))
        CFI V0 load(1, XDATA, add(CFA_XSP16, literal(-20)))
        CFI V1 load(1, XDATA, add(CFA_XSP16, literal(-19)))
        CFI V2 load(1, XDATA, add(CFA_XSP16, literal(-18)))
        CFI V3 load(1, XDATA, add(CFA_XSP16, literal(-17)))
        CFI V4 load(1, XDATA, add(CFA_XSP16, literal(-16)))
        CFI V5 load(1, XDATA, add(CFA_XSP16, literal(-15)))
        CFI V6 load(1, XDATA, add(CFA_XSP16, literal(-14)))
        CFI V7 load(1, XDATA, add(CFA_XSP16, literal(-13)))
        CFI V8 load(1, XDATA, add(CFA_XSP16, literal(-12)))
        CFI V9 load(1, XDATA, add(CFA_XSP16, literal(-11)))
        CFI V10 load(1, XDATA, add(CFA_XSP16, literal(-10)))
        CFI V11 load(1, XDATA, add(CFA_XSP16, literal(-9)))
        CFI V12 load(1, XDATA, add(CFA_XSP16, literal(-8)))
        CFI V13 load(1, XDATA, add(CFA_XSP16, literal(-7)))
        CFI R7 load(1, XDATA, add(CFA_XSP16, literal(-6)))
        CFI ?RET_LOW load(1, XDATA, add(CFA_XSP16, literal(-5)))
        CFI ?RET_HIGH load(1, XDATA, add(CFA_XSP16, literal(-4)))
        CFI ?BRET_EXT load(1, XDATA, add(CFA_XSP16, literal(-3)))
        CFI DPL0 load(1, XDATA, add(CFA_XSP16, literal(-2)))
        CFI DPH0 load(1, XDATA, add(CFA_XSP16, literal(-1)))
        CFI CFA_SP SP+0
        CFI CFA_XSP16 add(XSP16, 34)
        CFI Block cfiCond43 Using cfiCommon0
        CFI (cfiCond43) NoFunction
        CFI (cfiCond43) Conditional ??CrossCallReturnLabel_23
        CFI (cfiCond43) R6 load(1, XDATA, add(CFA_XSP16, literal(-22)))
        CFI (cfiCond43) VB load(1, XDATA, add(CFA_XSP16, literal(-21)))
        CFI (cfiCond43) V0 load(1, XDATA, add(CFA_XSP16, literal(-20)))
        CFI (cfiCond43) V1 load(1, XDATA, add(CFA_XSP16, literal(-19)))
        CFI (cfiCond43) V2 load(1, XDATA, add(CFA_XSP16, literal(-18)))
        CFI (cfiCond43) V3 load(1, XDATA, add(CFA_XSP16, literal(-17)))
        CFI (cfiCond43) V4 load(1, XDATA, add(CFA_XSP16, literal(-16)))
        CFI (cfiCond43) V5 load(1, XDATA, add(CFA_XSP16, literal(-15)))
        CFI (cfiCond43) V6 load(1, XDATA, add(CFA_XSP16, literal(-14)))
        CFI (cfiCond43) V7 load(1, XDATA, add(CFA_XSP16, literal(-13)))
        CFI (cfiCond43) V8 load(1, XDATA, add(CFA_XSP16, literal(-12)))
        CFI (cfiCond43) V9 load(1, XDATA, add(CFA_XSP16, literal(-11)))
        CFI (cfiCond43) V10 load(1, XDATA, add(CFA_XSP16, literal(-10)))
        CFI (cfiCond43) V11 load(1, XDATA, add(CFA_XSP16, literal(-9)))
        CFI (cfiCond43) V12 load(1, XDATA, add(CFA_XSP16, literal(-8)))
        CFI (cfiCond43) V13 load(1, XDATA, add(CFA_XSP16, literal(-7)))
        CFI (cfiCond43) R7 load(1, XDATA, add(CFA_XSP16, literal(-6)))
        CFI (cfiCond43) ?RET_LOW load(1, XDATA, add(CFA_XSP16, literal(-5)))
        CFI (cfiCond43) ?RET_HIGH load(1, XDATA, add(CFA_XSP16, literal(-4)))
        CFI (cfiCond43) ?BRET_EXT load(1, XDATA, add(CFA_XSP16, literal(-3)))
        CFI (cfiCond43) DPL0 load(1, XDATA, add(CFA_XSP16, literal(-2)))
        CFI (cfiCond43) DPH0 load(1, XDATA, add(CFA_XSP16, literal(-1)))
        CFI (cfiCond43) CFA_SP SP+0
        CFI (cfiCond43) CFA_XSP16 add(XSP16, 34)
        CFI Block cfiCond44 Using cfiCommon0
        CFI (cfiCond44) NoFunction
        CFI (cfiCond44) Conditional ??CrossCallReturnLabel_24
        CFI (cfiCond44) R6 load(1, XDATA, add(CFA_XSP16, literal(-22)))
        CFI (cfiCond44) VB load(1, XDATA, add(CFA_XSP16, literal(-21)))
        CFI (cfiCond44) V0 load(1, XDATA, add(CFA_XSP16, literal(-20)))
        CFI (cfiCond44) V1 load(1, XDATA, add(CFA_XSP16, literal(-19)))
        CFI (cfiCond44) V2 load(1, XDATA, add(CFA_XSP16, literal(-18)))
        CFI (cfiCond44) V3 load(1, XDATA, add(CFA_XSP16, literal(-17)))
        CFI (cfiCond44) V4 load(1, XDATA, add(CFA_XSP16, literal(-16)))
        CFI (cfiCond44) V5 load(1, XDATA, add(CFA_XSP16, literal(-15)))
        CFI (cfiCond44) V6 load(1, XDATA, add(CFA_XSP16, literal(-14)))
        CFI (cfiCond44) V7 load(1, XDATA, add(CFA_XSP16, literal(-13)))
        CFI (cfiCond44) V8 load(1, XDATA, add(CFA_XSP16, literal(-12)))
        CFI (cfiCond44) V9 load(1, XDATA, add(CFA_XSP16, literal(-11)))
        CFI (cfiCond44) V10 load(1, XDATA, add(CFA_XSP16, literal(-10)))
        CFI (cfiCond44) V11 load(1, XDATA, add(CFA_XSP16, literal(-9)))
        CFI (cfiCond44) V12 load(1, XDATA, add(CFA_XSP16, literal(-8)))
        CFI (cfiCond44) V13 load(1, XDATA, add(CFA_XSP16, literal(-7)))
        CFI (cfiCond44) R7 load(1, XDATA, add(CFA_XSP16, literal(-6)))
        CFI (cfiCond44) ?RET_LOW load(1, XDATA, add(CFA_XSP16, literal(-5)))
        CFI (cfiCond44) ?RET_HIGH load(1, XDATA, add(CFA_XSP16, literal(-4)))
        CFI (cfiCond44) ?BRET_EXT load(1, XDATA, add(CFA_XSP16, literal(-3)))
        CFI (cfiCond44) DPL0 load(1, XDATA, add(CFA_XSP16, literal(-2)))
        CFI (cfiCond44) DPH0 load(1, XDATA, add(CFA_XSP16, literal(-1)))
        CFI (cfiCond44) CFA_SP SP+0
        CFI (cfiCond44) CFA_XSP16 add(XSP16, 34)
        CFI Block cfiCond45 Using cfiCommon0
        CFI (cfiCond45) NoFunction
        CFI (cfiCond45) Conditional ??CrossCallReturnLabel_25
        CFI (cfiCond45) R6 load(1, XDATA, add(CFA_XSP16, literal(-22)))
        CFI (cfiCond45) VB load(1, XDATA, add(CFA_XSP16, literal(-21)))
        CFI (cfiCond45) V0 load(1, XDATA, add(CFA_XSP16, literal(-20)))
        CFI (cfiCond45) V1 load(1, XDATA, add(CFA_XSP16, literal(-19)))
        CFI (cfiCond45) V2 load(1, XDATA, add(CFA_XSP16, literal(-18)))
        CFI (cfiCond45) V3 load(1, XDATA, add(CFA_XSP16, literal(-17)))
        CFI (cfiCond45) V4 load(1, XDATA, add(CFA_XSP16, literal(-16)))
        CFI (cfiCond45) V5 load(1, XDATA, add(CFA_XSP16, literal(-15)))
        CFI (cfiCond45) V6 load(1, XDATA, add(CFA_XSP16, literal(-14)))
        CFI (cfiCond45) V7 load(1, XDATA, add(CFA_XSP16, literal(-13)))
        CFI (cfiCond45) V8 load(1, XDATA, add(CFA_XSP16, literal(-12)))
        CFI (cfiCond45) V9 load(1, XDATA, add(CFA_XSP16, literal(-11)))
        CFI (cfiCond45) V10 load(1, XDATA, add(CFA_XSP16, literal(-10)))
        CFI (cfiCond45) V11 load(1, XDATA, add(CFA_XSP16, literal(-9)))
        CFI (cfiCond45) V12 load(1, XDATA, add(CFA_XSP16, literal(-8)))
        CFI (cfiCond45) V13 load(1, XDATA, add(CFA_XSP16, literal(-7)))
        CFI (cfiCond45) R7 load(1, XDATA, add(CFA_XSP16, literal(-6)))
        CFI (cfiCond45) ?RET_LOW load(1, XDATA, add(CFA_XSP16, literal(-5)))
        CFI (cfiCond45) ?RET_HIGH load(1, XDATA, add(CFA_XSP16, literal(-4)))
        CFI (cfiCond45) ?BRET_EXT load(1, XDATA, add(CFA_XSP16, literal(-3)))
        CFI (cfiCond45) DPL0 load(1, XDATA, add(CFA_XSP16, literal(-2)))
        CFI (cfiCond45) DPH0 load(1, XDATA, add(CFA_XSP16, literal(-1)))
        CFI (cfiCond45) CFA_SP SP+0
        CFI (cfiCond45) CFA_XSP16 add(XSP16, 34)
        CFI Block cfiCond46 Using cfiCommon0
        CFI (cfiCond46) NoFunction
        CFI (cfiCond46) Conditional ??CrossCallReturnLabel_26
        CFI (cfiCond46) R6 load(1, XDATA, add(CFA_XSP16, literal(-22)))
        CFI (cfiCond46) VB load(1, XDATA, add(CFA_XSP16, literal(-21)))
        CFI (cfiCond46) V0 load(1, XDATA, add(CFA_XSP16, literal(-20)))
        CFI (cfiCond46) V1 load(1, XDATA, add(CFA_XSP16, literal(-19)))
        CFI (cfiCond46) V2 load(1, XDATA, add(CFA_XSP16, literal(-18)))
        CFI (cfiCond46) V3 load(1, XDATA, add(CFA_XSP16, literal(-17)))
        CFI (cfiCond46) V4 load(1, XDATA, add(CFA_XSP16, literal(-16)))
        CFI (cfiCond46) V5 load(1, XDATA, add(CFA_XSP16, literal(-15)))
        CFI (cfiCond46) V6 load(1, XDATA, add(CFA_XSP16, literal(-14)))
        CFI (cfiCond46) V7 load(1, XDATA, add(CFA_XSP16, literal(-13)))
        CFI (cfiCond46) V8 load(1, XDATA, add(CFA_XSP16, literal(-12)))
        CFI (cfiCond46) V9 load(1, XDATA, add(CFA_XSP16, literal(-11)))
        CFI (cfiCond46) V10 load(1, XDATA, add(CFA_XSP16, literal(-10)))
        CFI (cfiCond46) V11 load(1, XDATA, add(CFA_XSP16, literal(-9)))
        CFI (cfiCond46) V12 load(1, XDATA, add(CFA_XSP16, literal(-8)))
        CFI (cfiCond46) V13 load(1, XDATA, add(CFA_XSP16, literal(-7)))
        CFI (cfiCond46) R7 load(1, XDATA, add(CFA_XSP16, literal(-6)))
        CFI (cfiCond46) ?RET_LOW load(1, XDATA, add(CFA_XSP16, literal(-5)))
        CFI (cfiCond46) ?RET_HIGH load(1, XDATA, add(CFA_XSP16, literal(-4)))
        CFI (cfiCond46) ?BRET_EXT load(1, XDATA, add(CFA_XSP16, literal(-3)))
        CFI (cfiCond46) DPL0 load(1, XDATA, add(CFA_XSP16, literal(-2)))
        CFI (cfiCond46) DPH0 load(1, XDATA, add(CFA_XSP16, literal(-1)))
        CFI (cfiCond46) CFA_SP SP+0
        CFI (cfiCond46) CFA_XSP16 add(XSP16, 34)
        CFI Block cfiPicker47 Using cfiCommon1
        CFI (cfiPicker47) NoFunction
        CFI (cfiPicker47) Picker
        LCALL   ?Subroutine8 & 0xFFFF
??CrossCallReturnLabel_28:
        ; Setup parameters for call to function HalUARTWrite
        ; Setup parameters for call to function HalUARTWrite
        ; Setup parameters for call to function HalUARTWrite
        ; Setup parameters for call to function HalUARTWrite
        ; Setup parameters for call to function HalUARTWrite
        MOV     R4,#0x2
        MOV     R5,#0x0
        MOV     R2,#`?<Constant "  ">` & 0xff
        MOV     R3,#(`?<Constant "  ">` >> 8) & 0xff
        MOV     R1,#0x0
        LCALL   ??HalUARTWrite?relay
        RET
        CFI EndBlock cfiCond42
        CFI EndBlock cfiCond43
        CFI EndBlock cfiCond44
        CFI EndBlock cfiCond45
        CFI EndBlock cfiCond46
        CFI EndBlock cfiPicker47

        RSEG BANKED_CODE:CODE:NOROOT(0)
?Subroutine8:
        CFI Block cfiCond48 Using cfiCommon0
        CFI NoFunction
        CFI Conditional ??CrossCallReturnLabel_27
        CFI R6 load(1, XDATA, add(CFA_XSP16, literal(-22)))
        CFI VB load(1, XDATA, add(CFA_XSP16, literal(-21)))
        CFI V0 load(1, XDATA, add(CFA_XSP16, literal(-20)))
        CFI V1 load(1, XDATA, add(CFA_XSP16, literal(-19)))
        CFI V2 load(1, XDATA, add(CFA_XSP16, literal(-18)))
        CFI V3 load(1, XDATA, add(CFA_XSP16, literal(-17)))
        CFI V4 load(1, XDATA, add(CFA_XSP16, literal(-16)))
        CFI V5 load(1, XDATA, add(CFA_XSP16, literal(-15)))
        CFI V6 load(1, XDATA, add(CFA_XSP16, literal(-14)))
        CFI V7 load(1, XDATA, add(CFA_XSP16, literal(-13)))
        CFI V8 load(1, XDATA, add(CFA_XSP16, literal(-12)))
        CFI V9 load(1, XDATA, add(CFA_XSP16, literal(-11)))
        CFI V10 load(1, XDATA, add(CFA_XSP16, literal(-10)))
        CFI V11 load(1, XDATA, add(CFA_XSP16, literal(-9)))
        CFI V12 load(1, XDATA, add(CFA_XSP16, literal(-8)))
        CFI V13 load(1, XDATA, add(CFA_XSP16, literal(-7)))
        CFI R7 load(1, XDATA, add(CFA_XSP16, literal(-6)))
        CFI ?RET_LOW load(1, XDATA, add(CFA_XSP16, literal(-5)))
        CFI ?RET_HIGH load(1, XDATA, add(CFA_XSP16, literal(-4)))
        CFI ?BRET_EXT load(1, XDATA, add(CFA_XSP16, literal(-3)))
        CFI DPL0 load(1, XDATA, add(CFA_XSP16, literal(-2)))
        CFI DPH0 load(1, XDATA, add(CFA_XSP16, literal(-1)))
        CFI CFA_SP SP+0
        CFI CFA_XSP16 add(XSP16, 34)
        CFI Block cfiCond49 Using cfiCommon0
        CFI (cfiCond49) NoFunction
        CFI (cfiCond49) Conditional ??CrossCallReturnLabel_28, ??CrossCallReturnLabel_22
        CFI (cfiCond49) R6 load(1, XDATA, add(CFA_XSP16, literal(-22)))
        CFI (cfiCond49) VB load(1, XDATA, add(CFA_XSP16, literal(-21)))
        CFI (cfiCond49) V0 load(1, XDATA, add(CFA_XSP16, literal(-20)))
        CFI (cfiCond49) V1 load(1, XDATA, add(CFA_XSP16, literal(-19)))
        CFI (cfiCond49) V2 load(1, XDATA, add(CFA_XSP16, literal(-18)))
        CFI (cfiCond49) V3 load(1, XDATA, add(CFA_XSP16, literal(-17)))
        CFI (cfiCond49) V4 load(1, XDATA, add(CFA_XSP16, literal(-16)))
        CFI (cfiCond49) V5 load(1, XDATA, add(CFA_XSP16, literal(-15)))
        CFI (cfiCond49) V6 load(1, XDATA, add(CFA_XSP16, literal(-14)))
        CFI (cfiCond49) V7 load(1, XDATA, add(CFA_XSP16, literal(-13)))
        CFI (cfiCond49) V8 load(1, XDATA, add(CFA_XSP16, literal(-12)))
        CFI (cfiCond49) V9 load(1, XDATA, add(CFA_XSP16, literal(-11)))
        CFI (cfiCond49) V10 load(1, XDATA, add(CFA_XSP16, literal(-10)))
        CFI (cfiCond49) V11 load(1, XDATA, add(CFA_XSP16, literal(-9)))
        CFI (cfiCond49) V12 load(1, XDATA, add(CFA_XSP16, literal(-8)))
        CFI (cfiCond49) V13 load(1, XDATA, add(CFA_XSP16, literal(-7)))
        CFI (cfiCond49) R7 load(1, XDATA, add(CFA_XSP16, literal(-6)))
        CFI (cfiCond49) ?RET_LOW load(1, XDATA, add(CFA_XSP16, literal(-5)))
        CFI (cfiCond49) ?RET_HIGH load(1, XDATA, add(CFA_XSP16, literal(-4)))
        CFI (cfiCond49) ?BRET_EXT load(1, XDATA, add(CFA_XSP16, literal(-3)))
        CFI (cfiCond49) DPL0 load(1, XDATA, add(CFA_XSP16, literal(-2)))
        CFI (cfiCond49) DPH0 load(1, XDATA, add(CFA_XSP16, literal(-1)))
        CFI (cfiCond49) CFA_SP SP+0
        CFI (cfiCond49) CFA_XSP16 add(XSP16, 34)
        CFI Block cfiCond50 Using cfiCommon0
        CFI (cfiCond50) NoFunction
        CFI (cfiCond50) Conditional ??CrossCallReturnLabel_28, ??CrossCallReturnLabel_23
        CFI (cfiCond50) R6 load(1, XDATA, add(CFA_XSP16, literal(-22)))
        CFI (cfiCond50) VB load(1, XDATA, add(CFA_XSP16, literal(-21)))
        CFI (cfiCond50) V0 load(1, XDATA, add(CFA_XSP16, literal(-20)))
        CFI (cfiCond50) V1 load(1, XDATA, add(CFA_XSP16, literal(-19)))
        CFI (cfiCond50) V2 load(1, XDATA, add(CFA_XSP16, literal(-18)))
        CFI (cfiCond50) V3 load(1, XDATA, add(CFA_XSP16, literal(-17)))
        CFI (cfiCond50) V4 load(1, XDATA, add(CFA_XSP16, literal(-16)))
        CFI (cfiCond50) V5 load(1, XDATA, add(CFA_XSP16, literal(-15)))
        CFI (cfiCond50) V6 load(1, XDATA, add(CFA_XSP16, literal(-14)))
        CFI (cfiCond50) V7 load(1, XDATA, add(CFA_XSP16, literal(-13)))
        CFI (cfiCond50) V8 load(1, XDATA, add(CFA_XSP16, literal(-12)))
        CFI (cfiCond50) V9 load(1, XDATA, add(CFA_XSP16, literal(-11)))
        CFI (cfiCond50) V10 load(1, XDATA, add(CFA_XSP16, literal(-10)))
        CFI (cfiCond50) V11 load(1, XDATA, add(CFA_XSP16, literal(-9)))
        CFI (cfiCond50) V12 load(1, XDATA, add(CFA_XSP16, literal(-8)))
        CFI (cfiCond50) V13 load(1, XDATA, add(CFA_XSP16, literal(-7)))
        CFI (cfiCond50) R7 load(1, XDATA, add(CFA_XSP16, literal(-6)))
        CFI (cfiCond50) ?RET_LOW load(1, XDATA, add(CFA_XSP16, literal(-5)))
        CFI (cfiCond50) ?RET_HIGH load(1, XDATA, add(CFA_XSP16, literal(-4)))
        CFI (cfiCond50) ?BRET_EXT load(1, XDATA, add(CFA_XSP16, literal(-3)))
        CFI (cfiCond50) DPL0 load(1, XDATA, add(CFA_XSP16, literal(-2)))
        CFI (cfiCond50) DPH0 load(1, XDATA, add(CFA_XSP16, literal(-1)))
        CFI (cfiCond50) CFA_SP SP+0
        CFI (cfiCond50) CFA_XSP16 add(XSP16, 34)
        CFI Block cfiCond51 Using cfiCommon0
        CFI (cfiCond51) NoFunction
        CFI (cfiCond51) Conditional ??CrossCallReturnLabel_28, ??CrossCallReturnLabel_24
        CFI (cfiCond51) R6 load(1, XDATA, add(CFA_XSP16, literal(-22)))
        CFI (cfiCond51) VB load(1, XDATA, add(CFA_XSP16, literal(-21)))
        CFI (cfiCond51) V0 load(1, XDATA, add(CFA_XSP16, literal(-20)))
        CFI (cfiCond51) V1 load(1, XDATA, add(CFA_XSP16, literal(-19)))
        CFI (cfiCond51) V2 load(1, XDATA, add(CFA_XSP16, literal(-18)))
        CFI (cfiCond51) V3 load(1, XDATA, add(CFA_XSP16, literal(-17)))
        CFI (cfiCond51) V4 load(1, XDATA, add(CFA_XSP16, literal(-16)))
        CFI (cfiCond51) V5 load(1, XDATA, add(CFA_XSP16, literal(-15)))
        CFI (cfiCond51) V6 load(1, XDATA, add(CFA_XSP16, literal(-14)))
        CFI (cfiCond51) V7 load(1, XDATA, add(CFA_XSP16, literal(-13)))
        CFI (cfiCond51) V8 load(1, XDATA, add(CFA_XSP16, literal(-12)))
        CFI (cfiCond51) V9 load(1, XDATA, add(CFA_XSP16, literal(-11)))
        CFI (cfiCond51) V10 load(1, XDATA, add(CFA_XSP16, literal(-10)))
        CFI (cfiCond51) V11 load(1, XDATA, add(CFA_XSP16, literal(-9)))
        CFI (cfiCond51) V12 load(1, XDATA, add(CFA_XSP16, literal(-8)))
        CFI (cfiCond51) V13 load(1, XDATA, add(CFA_XSP16, literal(-7)))
        CFI (cfiCond51) R7 load(1, XDATA, add(CFA_XSP16, literal(-6)))
        CFI (cfiCond51) ?RET_LOW load(1, XDATA, add(CFA_XSP16, literal(-5)))
        CFI (cfiCond51) ?RET_HIGH load(1, XDATA, add(CFA_XSP16, literal(-4)))
        CFI (cfiCond51) ?BRET_EXT load(1, XDATA, add(CFA_XSP16, literal(-3)))
        CFI (cfiCond51) DPL0 load(1, XDATA, add(CFA_XSP16, literal(-2)))
        CFI (cfiCond51) DPH0 load(1, XDATA, add(CFA_XSP16, literal(-1)))
        CFI (cfiCond51) CFA_SP SP+0
        CFI (cfiCond51) CFA_XSP16 add(XSP16, 34)
        CFI Block cfiCond52 Using cfiCommon0
        CFI (cfiCond52) NoFunction
        CFI (cfiCond52) Conditional ??CrossCallReturnLabel_28, ??CrossCallReturnLabel_25
        CFI (cfiCond52) R6 load(1, XDATA, add(CFA_XSP16, literal(-22)))
        CFI (cfiCond52) VB load(1, XDATA, add(CFA_XSP16, literal(-21)))
        CFI (cfiCond52) V0 load(1, XDATA, add(CFA_XSP16, literal(-20)))
        CFI (cfiCond52) V1 load(1, XDATA, add(CFA_XSP16, literal(-19)))
        CFI (cfiCond52) V2 load(1, XDATA, add(CFA_XSP16, literal(-18)))
        CFI (cfiCond52) V3 load(1, XDATA, add(CFA_XSP16, literal(-17)))
        CFI (cfiCond52) V4 load(1, XDATA, add(CFA_XSP16, literal(-16)))
        CFI (cfiCond52) V5 load(1, XDATA, add(CFA_XSP16, literal(-15)))
        CFI (cfiCond52) V6 load(1, XDATA, add(CFA_XSP16, literal(-14)))
        CFI (cfiCond52) V7 load(1, XDATA, add(CFA_XSP16, literal(-13)))
        CFI (cfiCond52) V8 load(1, XDATA, add(CFA_XSP16, literal(-12)))
        CFI (cfiCond52) V9 load(1, XDATA, add(CFA_XSP16, literal(-11)))
        CFI (cfiCond52) V10 load(1, XDATA, add(CFA_XSP16, literal(-10)))
        CFI (cfiCond52) V11 load(1, XDATA, add(CFA_XSP16, literal(-9)))
        CFI (cfiCond52) V12 load(1, XDATA, add(CFA_XSP16, literal(-8)))
        CFI (cfiCond52) V13 load(1, XDATA, add(CFA_XSP16, literal(-7)))
        CFI (cfiCond52) R7 load(1, XDATA, add(CFA_XSP16, literal(-6)))
        CFI (cfiCond52) ?RET_LOW load(1, XDATA, add(CFA_XSP16, literal(-5)))
        CFI (cfiCond52) ?RET_HIGH load(1, XDATA, add(CFA_XSP16, literal(-4)))
        CFI (cfiCond52) ?BRET_EXT load(1, XDATA, add(CFA_XSP16, literal(-3)))
        CFI (cfiCond52) DPL0 load(1, XDATA, add(CFA_XSP16, literal(-2)))
        CFI (cfiCond52) DPH0 load(1, XDATA, add(CFA_XSP16, literal(-1)))
        CFI (cfiCond52) CFA_SP SP+0
        CFI (cfiCond52) CFA_XSP16 add(XSP16, 34)
        CFI Block cfiCond53 Using cfiCommon0
        CFI (cfiCond53) NoFunction
        CFI (cfiCond53) Conditional ??CrossCallReturnLabel_28, ??CrossCallReturnLabel_26
        CFI (cfiCond53) R6 load(1, XDATA, add(CFA_XSP16, literal(-22)))
        CFI (cfiCond53) VB load(1, XDATA, add(CFA_XSP16, literal(-21)))
        CFI (cfiCond53) V0 load(1, XDATA, add(CFA_XSP16, literal(-20)))
        CFI (cfiCond53) V1 load(1, XDATA, add(CFA_XSP16, literal(-19)))
        CFI (cfiCond53) V2 load(1, XDATA, add(CFA_XSP16, literal(-18)))
        CFI (cfiCond53) V3 load(1, XDATA, add(CFA_XSP16, literal(-17)))
        CFI (cfiCond53) V4 load(1, XDATA, add(CFA_XSP16, literal(-16)))
        CFI (cfiCond53) V5 load(1, XDATA, add(CFA_XSP16, literal(-15)))
        CFI (cfiCond53) V6 load(1, XDATA, add(CFA_XSP16, literal(-14)))
        CFI (cfiCond53) V7 load(1, XDATA, add(CFA_XSP16, literal(-13)))
        CFI (cfiCond53) V8 load(1, XDATA, add(CFA_XSP16, literal(-12)))
        CFI (cfiCond53) V9 load(1, XDATA, add(CFA_XSP16, literal(-11)))
        CFI (cfiCond53) V10 load(1, XDATA, add(CFA_XSP16, literal(-10)))
        CFI (cfiCond53) V11 load(1, XDATA, add(CFA_XSP16, literal(-9)))
        CFI (cfiCond53) V12 load(1, XDATA, add(CFA_XSP16, literal(-8)))
        CFI (cfiCond53) V13 load(1, XDATA, add(CFA_XSP16, literal(-7)))
        CFI (cfiCond53) R7 load(1, XDATA, add(CFA_XSP16, literal(-6)))
        CFI (cfiCond53) ?RET_LOW load(1, XDATA, add(CFA_XSP16, literal(-5)))
        CFI (cfiCond53) ?RET_HIGH load(1, XDATA, add(CFA_XSP16, literal(-4)))
        CFI (cfiCond53) ?BRET_EXT load(1, XDATA, add(CFA_XSP16, literal(-3)))
        CFI (cfiCond53) DPL0 load(1, XDATA, add(CFA_XSP16, literal(-2)))
        CFI (cfiCond53) DPH0 load(1, XDATA, add(CFA_XSP16, literal(-1)))
        CFI (cfiCond53) CFA_SP SP+0
        CFI (cfiCond53) CFA_XSP16 add(XSP16, 34)
        CFI Block cfiPicker54 Using cfiCommon1
        CFI (cfiPicker54) NoFunction
        CFI (cfiPicker54) Picker
        MOVX    A,@DPTR
        MOV     R2,A
        INC     DPTR
        MOVX    A,@DPTR
        MOV     R3,A
        LCALL   ??type_change?relay
        RET
        CFI EndBlock cfiCond48
        CFI EndBlock cfiCond49
        CFI EndBlock cfiCond50
        CFI EndBlock cfiCond51
        CFI EndBlock cfiCond52
        CFI EndBlock cfiCond53
        CFI EndBlock cfiPicker54

        RSEG BANKED_CODE:CODE:NOROOT(0)
?Subroutine5:
        CFI Block cfiCond55 Using cfiCommon0
        CFI NoFunction
        CFI Conditional ??CrossCallReturnLabel_6
        CFI R6 load(1, XDATA, add(CFA_XSP16, literal(-22)))
        CFI VB load(1, XDATA, add(CFA_XSP16, literal(-21)))
        CFI V0 load(1, XDATA, add(CFA_XSP16, literal(-20)))
        CFI V1 load(1, XDATA, add(CFA_XSP16, literal(-19)))
        CFI V2 load(1, XDATA, add(CFA_XSP16, literal(-18)))
        CFI V3 load(1, XDATA, add(CFA_XSP16, literal(-17)))
        CFI V4 load(1, XDATA, add(CFA_XSP16, literal(-16)))
        CFI V5 load(1, XDATA, add(CFA_XSP16, literal(-15)))
        CFI V6 load(1, XDATA, add(CFA_XSP16, literal(-14)))
        CFI V7 load(1, XDATA, add(CFA_XSP16, literal(-13)))
        CFI V8 load(1, XDATA, add(CFA_XSP16, literal(-12)))
        CFI V9 load(1, XDATA, add(CFA_XSP16, literal(-11)))
        CFI V10 load(1, XDATA, add(CFA_XSP16, literal(-10)))
        CFI V11 load(1, XDATA, add(CFA_XSP16, literal(-9)))
        CFI V12 load(1, XDATA, add(CFA_XSP16, literal(-8)))
        CFI V13 load(1, XDATA, add(CFA_XSP16, literal(-7)))
        CFI R7 load(1, XDATA, add(CFA_XSP16, literal(-6)))
        CFI ?RET_LOW load(1, XDATA, add(CFA_XSP16, literal(-5)))
        CFI ?RET_HIGH load(1, XDATA, add(CFA_XSP16, literal(-4)))
        CFI ?BRET_EXT load(1, XDATA, add(CFA_XSP16, literal(-3)))
        CFI DPL0 load(1, XDATA, add(CFA_XSP16, literal(-2)))
        CFI DPH0 load(1, XDATA, add(CFA_XSP16, literal(-1)))
        CFI CFA_SP SP+0
        CFI CFA_XSP16 add(XSP16, 34)
        CFI Block cfiCond56 Using cfiCommon0
        CFI (cfiCond56) NoFunction
        CFI (cfiCond56) Conditional ??CrossCallReturnLabel_7
        CFI (cfiCond56) R6 load(1, XDATA, add(CFA_XSP16, literal(-22)))
        CFI (cfiCond56) VB load(1, XDATA, add(CFA_XSP16, literal(-21)))
        CFI (cfiCond56) V0 load(1, XDATA, add(CFA_XSP16, literal(-20)))
        CFI (cfiCond56) V1 load(1, XDATA, add(CFA_XSP16, literal(-19)))
        CFI (cfiCond56) V2 load(1, XDATA, add(CFA_XSP16, literal(-18)))
        CFI (cfiCond56) V3 load(1, XDATA, add(CFA_XSP16, literal(-17)))
        CFI (cfiCond56) V4 load(1, XDATA, add(CFA_XSP16, literal(-16)))
        CFI (cfiCond56) V5 load(1, XDATA, add(CFA_XSP16, literal(-15)))
        CFI (cfiCond56) V6 load(1, XDATA, add(CFA_XSP16, literal(-14)))
        CFI (cfiCond56) V7 load(1, XDATA, add(CFA_XSP16, literal(-13)))
        CFI (cfiCond56) V8 load(1, XDATA, add(CFA_XSP16, literal(-12)))
        CFI (cfiCond56) V9 load(1, XDATA, add(CFA_XSP16, literal(-11)))
        CFI (cfiCond56) V10 load(1, XDATA, add(CFA_XSP16, literal(-10)))
        CFI (cfiCond56) V11 load(1, XDATA, add(CFA_XSP16, literal(-9)))
        CFI (cfiCond56) V12 load(1, XDATA, add(CFA_XSP16, literal(-8)))
        CFI (cfiCond56) V13 load(1, XDATA, add(CFA_XSP16, literal(-7)))
        CFI (cfiCond56) R7 load(1, XDATA, add(CFA_XSP16, literal(-6)))
        CFI (cfiCond56) ?RET_LOW load(1, XDATA, add(CFA_XSP16, literal(-5)))
        CFI (cfiCond56) ?RET_HIGH load(1, XDATA, add(CFA_XSP16, literal(-4)))
        CFI (cfiCond56) ?BRET_EXT load(1, XDATA, add(CFA_XSP16, literal(-3)))
        CFI (cfiCond56) DPL0 load(1, XDATA, add(CFA_XSP16, literal(-2)))
        CFI (cfiCond56) DPH0 load(1, XDATA, add(CFA_XSP16, literal(-1)))
        CFI (cfiCond56) CFA_SP SP+0
        CFI (cfiCond56) CFA_XSP16 add(XSP16, 34)
        CFI Block cfiCond57 Using cfiCommon0
        CFI (cfiCond57) NoFunction
        CFI (cfiCond57) Conditional ??CrossCallReturnLabel_8
        CFI (cfiCond57) R6 load(1, XDATA, add(CFA_XSP16, literal(-22)))
        CFI (cfiCond57) VB load(1, XDATA, add(CFA_XSP16, literal(-21)))
        CFI (cfiCond57) V0 load(1, XDATA, add(CFA_XSP16, literal(-20)))
        CFI (cfiCond57) V1 load(1, XDATA, add(CFA_XSP16, literal(-19)))
        CFI (cfiCond57) V2 load(1, XDATA, add(CFA_XSP16, literal(-18)))
        CFI (cfiCond57) V3 load(1, XDATA, add(CFA_XSP16, literal(-17)))
        CFI (cfiCond57) V4 load(1, XDATA, add(CFA_XSP16, literal(-16)))
        CFI (cfiCond57) V5 load(1, XDATA, add(CFA_XSP16, literal(-15)))
        CFI (cfiCond57) V6 load(1, XDATA, add(CFA_XSP16, literal(-14)))
        CFI (cfiCond57) V7 load(1, XDATA, add(CFA_XSP16, literal(-13)))
        CFI (cfiCond57) V8 load(1, XDATA, add(CFA_XSP16, literal(-12)))
        CFI (cfiCond57) V9 load(1, XDATA, add(CFA_XSP16, literal(-11)))
        CFI (cfiCond57) V10 load(1, XDATA, add(CFA_XSP16, literal(-10)))
        CFI (cfiCond57) V11 load(1, XDATA, add(CFA_XSP16, literal(-9)))
        CFI (cfiCond57) V12 load(1, XDATA, add(CFA_XSP16, literal(-8)))
        CFI (cfiCond57) V13 load(1, XDATA, add(CFA_XSP16, literal(-7)))
        CFI (cfiCond57) R7 load(1, XDATA, add(CFA_XSP16, literal(-6)))
        CFI (cfiCond57) ?RET_LOW load(1, XDATA, add(CFA_XSP16, literal(-5)))
        CFI (cfiCond57) ?RET_HIGH load(1, XDATA, add(CFA_XSP16, literal(-4)))
        CFI (cfiCond57) ?BRET_EXT load(1, XDATA, add(CFA_XSP16, literal(-3)))
        CFI (cfiCond57) DPL0 load(1, XDATA, add(CFA_XSP16, literal(-2)))
        CFI (cfiCond57) DPH0 load(1, XDATA, add(CFA_XSP16, literal(-1)))
        CFI (cfiCond57) CFA_SP SP+0
        CFI (cfiCond57) CFA_XSP16 add(XSP16, 34)
        CFI Block cfiCond58 Using cfiCommon0
        CFI (cfiCond58) NoFunction
        CFI (cfiCond58) Conditional ??CrossCallReturnLabel_9
        CFI (cfiCond58) R6 load(1, XDATA, add(CFA_XSP16, literal(-22)))
        CFI (cfiCond58) VB load(1, XDATA, add(CFA_XSP16, literal(-21)))
        CFI (cfiCond58) V0 load(1, XDATA, add(CFA_XSP16, literal(-20)))
        CFI (cfiCond58) V1 load(1, XDATA, add(CFA_XSP16, literal(-19)))
        CFI (cfiCond58) V2 load(1, XDATA, add(CFA_XSP16, literal(-18)))
        CFI (cfiCond58) V3 load(1, XDATA, add(CFA_XSP16, literal(-17)))
        CFI (cfiCond58) V4 load(1, XDATA, add(CFA_XSP16, literal(-16)))
        CFI (cfiCond58) V5 load(1, XDATA, add(CFA_XSP16, literal(-15)))
        CFI (cfiCond58) V6 load(1, XDATA, add(CFA_XSP16, literal(-14)))
        CFI (cfiCond58) V7 load(1, XDATA, add(CFA_XSP16, literal(-13)))
        CFI (cfiCond58) V8 load(1, XDATA, add(CFA_XSP16, literal(-12)))
        CFI (cfiCond58) V9 load(1, XDATA, add(CFA_XSP16, literal(-11)))
        CFI (cfiCond58) V10 load(1, XDATA, add(CFA_XSP16, literal(-10)))
        CFI (cfiCond58) V11 load(1, XDATA, add(CFA_XSP16, literal(-9)))
        CFI (cfiCond58) V12 load(1, XDATA, add(CFA_XSP16, literal(-8)))
        CFI (cfiCond58) V13 load(1, XDATA, add(CFA_XSP16, literal(-7)))
        CFI (cfiCond58) R7 load(1, XDATA, add(CFA_XSP16, literal(-6)))
        CFI (cfiCond58) ?RET_LOW load(1, XDATA, add(CFA_XSP16, literal(-5)))
        CFI (cfiCond58) ?RET_HIGH load(1, XDATA, add(CFA_XSP16, literal(-4)))
        CFI (cfiCond58) ?BRET_EXT load(1, XDATA, add(CFA_XSP16, literal(-3)))
        CFI (cfiCond58) DPL0 load(1, XDATA, add(CFA_XSP16, literal(-2)))
        CFI (cfiCond58) DPH0 load(1, XDATA, add(CFA_XSP16, literal(-1)))
        CFI (cfiCond58) CFA_SP SP+0
        CFI (cfiCond58) CFA_XSP16 add(XSP16, 34)
        CFI Block cfiCond59 Using cfiCommon0
        CFI (cfiCond59) NoFunction
        CFI (cfiCond59) Conditional ??CrossCallReturnLabel_10
        CFI (cfiCond59) R6 load(1, XDATA, add(CFA_XSP16, literal(-22)))
        CFI (cfiCond59) VB load(1, XDATA, add(CFA_XSP16, literal(-21)))
        CFI (cfiCond59) V0 load(1, XDATA, add(CFA_XSP16, literal(-20)))
        CFI (cfiCond59) V1 load(1, XDATA, add(CFA_XSP16, literal(-19)))
        CFI (cfiCond59) V2 load(1, XDATA, add(CFA_XSP16, literal(-18)))
        CFI (cfiCond59) V3 load(1, XDATA, add(CFA_XSP16, literal(-17)))
        CFI (cfiCond59) V4 load(1, XDATA, add(CFA_XSP16, literal(-16)))
        CFI (cfiCond59) V5 load(1, XDATA, add(CFA_XSP16, literal(-15)))
        CFI (cfiCond59) V6 load(1, XDATA, add(CFA_XSP16, literal(-14)))
        CFI (cfiCond59) V7 load(1, XDATA, add(CFA_XSP16, literal(-13)))
        CFI (cfiCond59) V8 load(1, XDATA, add(CFA_XSP16, literal(-12)))
        CFI (cfiCond59) V9 load(1, XDATA, add(CFA_XSP16, literal(-11)))
        CFI (cfiCond59) V10 load(1, XDATA, add(CFA_XSP16, literal(-10)))
        CFI (cfiCond59) V11 load(1, XDATA, add(CFA_XSP16, literal(-9)))
        CFI (cfiCond59) V12 load(1, XDATA, add(CFA_XSP16, literal(-8)))
        CFI (cfiCond59) V13 load(1, XDATA, add(CFA_XSP16, literal(-7)))
        CFI (cfiCond59) R7 load(1, XDATA, add(CFA_XSP16, literal(-6)))
        CFI (cfiCond59) ?RET_LOW load(1, XDATA, add(CFA_XSP16, literal(-5)))
        CFI (cfiCond59) ?RET_HIGH load(1, XDATA, add(CFA_XSP16, literal(-4)))
        CFI (cfiCond59) ?BRET_EXT load(1, XDATA, add(CFA_XSP16, literal(-3)))
        CFI (cfiCond59) DPL0 load(1, XDATA, add(CFA_XSP16, literal(-2)))
        CFI (cfiCond59) DPH0 load(1, XDATA, add(CFA_XSP16, literal(-1)))
        CFI (cfiCond59) CFA_SP SP+0
        CFI (cfiCond59) CFA_XSP16 add(XSP16, 34)
        CFI Block cfiCond60 Using cfiCommon0
        CFI (cfiCond60) NoFunction
        CFI (cfiCond60) Conditional ??CrossCallReturnLabel_11
        CFI (cfiCond60) R6 load(1, XDATA, add(CFA_XSP16, literal(-22)))
        CFI (cfiCond60) VB load(1, XDATA, add(CFA_XSP16, literal(-21)))
        CFI (cfiCond60) V0 load(1, XDATA, add(CFA_XSP16, literal(-20)))
        CFI (cfiCond60) V1 load(1, XDATA, add(CFA_XSP16, literal(-19)))
        CFI (cfiCond60) V2 load(1, XDATA, add(CFA_XSP16, literal(-18)))
        CFI (cfiCond60) V3 load(1, XDATA, add(CFA_XSP16, literal(-17)))
        CFI (cfiCond60) V4 load(1, XDATA, add(CFA_XSP16, literal(-16)))
        CFI (cfiCond60) V5 load(1, XDATA, add(CFA_XSP16, literal(-15)))
        CFI (cfiCond60) V6 load(1, XDATA, add(CFA_XSP16, literal(-14)))
        CFI (cfiCond60) V7 load(1, XDATA, add(CFA_XSP16, literal(-13)))
        CFI (cfiCond60) V8 load(1, XDATA, add(CFA_XSP16, literal(-12)))
        CFI (cfiCond60) V9 load(1, XDATA, add(CFA_XSP16, literal(-11)))
        CFI (cfiCond60) V10 load(1, XDATA, add(CFA_XSP16, literal(-10)))
        CFI (cfiCond60) V11 load(1, XDATA, add(CFA_XSP16, literal(-9)))
        CFI (cfiCond60) V12 load(1, XDATA, add(CFA_XSP16, literal(-8)))
        CFI (cfiCond60) V13 load(1, XDATA, add(CFA_XSP16, literal(-7)))
        CFI (cfiCond60) R7 load(1, XDATA, add(CFA_XSP16, literal(-6)))
        CFI (cfiCond60) ?RET_LOW load(1, XDATA, add(CFA_XSP16, literal(-5)))
        CFI (cfiCond60) ?RET_HIGH load(1, XDATA, add(CFA_XSP16, literal(-4)))
        CFI (cfiCond60) ?BRET_EXT load(1, XDATA, add(CFA_XSP16, literal(-3)))
        CFI (cfiCond60) DPL0 load(1, XDATA, add(CFA_XSP16, literal(-2)))
        CFI (cfiCond60) DPH0 load(1, XDATA, add(CFA_XSP16, literal(-1)))
        CFI (cfiCond60) CFA_SP SP+0
        CFI (cfiCond60) CFA_XSP16 add(XSP16, 34)
        CFI Block cfiCond61 Using cfiCommon0
        CFI (cfiCond61) NoFunction
        CFI (cfiCond61) Conditional ??CrossCallReturnLabel_12
        CFI (cfiCond61) R6 load(1, XDATA, add(CFA_XSP16, literal(-22)))
        CFI (cfiCond61) VB load(1, XDATA, add(CFA_XSP16, literal(-21)))
        CFI (cfiCond61) V0 load(1, XDATA, add(CFA_XSP16, literal(-20)))
        CFI (cfiCond61) V1 load(1, XDATA, add(CFA_XSP16, literal(-19)))
        CFI (cfiCond61) V2 load(1, XDATA, add(CFA_XSP16, literal(-18)))
        CFI (cfiCond61) V3 load(1, XDATA, add(CFA_XSP16, literal(-17)))
        CFI (cfiCond61) V4 load(1, XDATA, add(CFA_XSP16, literal(-16)))
        CFI (cfiCond61) V5 load(1, XDATA, add(CFA_XSP16, literal(-15)))
        CFI (cfiCond61) V6 load(1, XDATA, add(CFA_XSP16, literal(-14)))
        CFI (cfiCond61) V7 load(1, XDATA, add(CFA_XSP16, literal(-13)))
        CFI (cfiCond61) V8 load(1, XDATA, add(CFA_XSP16, literal(-12)))
        CFI (cfiCond61) V9 load(1, XDATA, add(CFA_XSP16, literal(-11)))
        CFI (cfiCond61) V10 load(1, XDATA, add(CFA_XSP16, literal(-10)))
        CFI (cfiCond61) V11 load(1, XDATA, add(CFA_XSP16, literal(-9)))
        CFI (cfiCond61) V12 load(1, XDATA, add(CFA_XSP16, literal(-8)))
        CFI (cfiCond61) V13 load(1, XDATA, add(CFA_XSP16, literal(-7)))
        CFI (cfiCond61) R7 load(1, XDATA, add(CFA_XSP16, literal(-6)))
        CFI (cfiCond61) ?RET_LOW load(1, XDATA, add(CFA_XSP16, literal(-5)))
        CFI (cfiCond61) ?RET_HIGH load(1, XDATA, add(CFA_XSP16, literal(-4)))
        CFI (cfiCond61) ?BRET_EXT load(1, XDATA, add(CFA_XSP16, literal(-3)))
        CFI (cfiCond61) DPL0 load(1, XDATA, add(CFA_XSP16, literal(-2)))
        CFI (cfiCond61) DPH0 load(1, XDATA, add(CFA_XSP16, literal(-1)))
        CFI (cfiCond61) CFA_SP SP+0
        CFI (cfiCond61) CFA_XSP16 add(XSP16, 34)
        CFI Block cfiCond62 Using cfiCommon0
        CFI (cfiCond62) NoFunction
        CFI (cfiCond62) Conditional ??CrossCallReturnLabel_13
        CFI (cfiCond62) R6 load(1, XDATA, add(CFA_XSP16, literal(-22)))
        CFI (cfiCond62) VB load(1, XDATA, add(CFA_XSP16, literal(-21)))
        CFI (cfiCond62) V0 load(1, XDATA, add(CFA_XSP16, literal(-20)))
        CFI (cfiCond62) V1 load(1, XDATA, add(CFA_XSP16, literal(-19)))
        CFI (cfiCond62) V2 load(1, XDATA, add(CFA_XSP16, literal(-18)))
        CFI (cfiCond62) V3 load(1, XDATA, add(CFA_XSP16, literal(-17)))
        CFI (cfiCond62) V4 load(1, XDATA, add(CFA_XSP16, literal(-16)))
        CFI (cfiCond62) V5 load(1, XDATA, add(CFA_XSP16, literal(-15)))
        CFI (cfiCond62) V6 load(1, XDATA, add(CFA_XSP16, literal(-14)))
        CFI (cfiCond62) V7 load(1, XDATA, add(CFA_XSP16, literal(-13)))
        CFI (cfiCond62) V8 load(1, XDATA, add(CFA_XSP16, literal(-12)))
        CFI (cfiCond62) V9 load(1, XDATA, add(CFA_XSP16, literal(-11)))
        CFI (cfiCond62) V10 load(1, XDATA, add(CFA_XSP16, literal(-10)))
        CFI (cfiCond62) V11 load(1, XDATA, add(CFA_XSP16, literal(-9)))
        CFI (cfiCond62) V12 load(1, XDATA, add(CFA_XSP16, literal(-8)))
        CFI (cfiCond62) V13 load(1, XDATA, add(CFA_XSP16, literal(-7)))
        CFI (cfiCond62) R7 load(1, XDATA, add(CFA_XSP16, literal(-6)))
        CFI (cfiCond62) ?RET_LOW load(1, XDATA, add(CFA_XSP16, literal(-5)))
        CFI (cfiCond62) ?RET_HIGH load(1, XDATA, add(CFA_XSP16, literal(-4)))
        CFI (cfiCond62) ?BRET_EXT load(1, XDATA, add(CFA_XSP16, literal(-3)))
        CFI (cfiCond62) DPL0 load(1, XDATA, add(CFA_XSP16, literal(-2)))
        CFI (cfiCond62) DPH0 load(1, XDATA, add(CFA_XSP16, literal(-1)))
        CFI (cfiCond62) CFA_SP SP+0
        CFI (cfiCond62) CFA_XSP16 add(XSP16, 34)
        CFI Block cfiCond63 Using cfiCommon0
        CFI (cfiCond63) NoFunction
        CFI (cfiCond63) Conditional ??CrossCallReturnLabel_14
        CFI (cfiCond63) R6 load(1, XDATA, add(CFA_XSP16, literal(-22)))
        CFI (cfiCond63) VB load(1, XDATA, add(CFA_XSP16, literal(-21)))
        CFI (cfiCond63) V0 load(1, XDATA, add(CFA_XSP16, literal(-20)))
        CFI (cfiCond63) V1 load(1, XDATA, add(CFA_XSP16, literal(-19)))
        CFI (cfiCond63) V2 load(1, XDATA, add(CFA_XSP16, literal(-18)))
        CFI (cfiCond63) V3 load(1, XDATA, add(CFA_XSP16, literal(-17)))
        CFI (cfiCond63) V4 load(1, XDATA, add(CFA_XSP16, literal(-16)))
        CFI (cfiCond63) V5 load(1, XDATA, add(CFA_XSP16, literal(-15)))
        CFI (cfiCond63) V6 load(1, XDATA, add(CFA_XSP16, literal(-14)))
        CFI (cfiCond63) V7 load(1, XDATA, add(CFA_XSP16, literal(-13)))
        CFI (cfiCond63) V8 load(1, XDATA, add(CFA_XSP16, literal(-12)))
        CFI (cfiCond63) V9 load(1, XDATA, add(CFA_XSP16, literal(-11)))
        CFI (cfiCond63) V10 load(1, XDATA, add(CFA_XSP16, literal(-10)))
        CFI (cfiCond63) V11 load(1, XDATA, add(CFA_XSP16, literal(-9)))
        CFI (cfiCond63) V12 load(1, XDATA, add(CFA_XSP16, literal(-8)))
        CFI (cfiCond63) V13 load(1, XDATA, add(CFA_XSP16, literal(-7)))
        CFI (cfiCond63) R7 load(1, XDATA, add(CFA_XSP16, literal(-6)))
        CFI (cfiCond63) ?RET_LOW load(1, XDATA, add(CFA_XSP16, literal(-5)))
        CFI (cfiCond63) ?RET_HIGH load(1, XDATA, add(CFA_XSP16, literal(-4)))
        CFI (cfiCond63) ?BRET_EXT load(1, XDATA, add(CFA_XSP16, literal(-3)))
        CFI (cfiCond63) DPL0 load(1, XDATA, add(CFA_XSP16, literal(-2)))
        CFI (cfiCond63) DPH0 load(1, XDATA, add(CFA_XSP16, literal(-1)))
        CFI (cfiCond63) CFA_SP SP+0
        CFI (cfiCond63) CFA_XSP16 add(XSP16, 34)
        CFI Block cfiCond64 Using cfiCommon0
        CFI (cfiCond64) NoFunction
        CFI (cfiCond64) Conditional ??CrossCallReturnLabel_15
        CFI (cfiCond64) R6 load(1, XDATA, add(CFA_XSP16, literal(-22)))
        CFI (cfiCond64) VB load(1, XDATA, add(CFA_XSP16, literal(-21)))
        CFI (cfiCond64) V0 load(1, XDATA, add(CFA_XSP16, literal(-20)))
        CFI (cfiCond64) V1 load(1, XDATA, add(CFA_XSP16, literal(-19)))
        CFI (cfiCond64) V2 load(1, XDATA, add(CFA_XSP16, literal(-18)))
        CFI (cfiCond64) V3 load(1, XDATA, add(CFA_XSP16, literal(-17)))
        CFI (cfiCond64) V4 load(1, XDATA, add(CFA_XSP16, literal(-16)))
        CFI (cfiCond64) V5 load(1, XDATA, add(CFA_XSP16, literal(-15)))
        CFI (cfiCond64) V6 load(1, XDATA, add(CFA_XSP16, literal(-14)))
        CFI (cfiCond64) V7 load(1, XDATA, add(CFA_XSP16, literal(-13)))
        CFI (cfiCond64) V8 load(1, XDATA, add(CFA_XSP16, literal(-12)))
        CFI (cfiCond64) V9 load(1, XDATA, add(CFA_XSP16, literal(-11)))
        CFI (cfiCond64) V10 load(1, XDATA, add(CFA_XSP16, literal(-10)))
        CFI (cfiCond64) V11 load(1, XDATA, add(CFA_XSP16, literal(-9)))
        CFI (cfiCond64) V12 load(1, XDATA, add(CFA_XSP16, literal(-8)))
        CFI (cfiCond64) V13 load(1, XDATA, add(CFA_XSP16, literal(-7)))
        CFI (cfiCond64) R7 load(1, XDATA, add(CFA_XSP16, literal(-6)))
        CFI (cfiCond64) ?RET_LOW load(1, XDATA, add(CFA_XSP16, literal(-5)))
        CFI (cfiCond64) ?RET_HIGH load(1, XDATA, add(CFA_XSP16, literal(-4)))
        CFI (cfiCond64) ?BRET_EXT load(1, XDATA, add(CFA_XSP16, literal(-3)))
        CFI (cfiCond64) DPL0 load(1, XDATA, add(CFA_XSP16, literal(-2)))
        CFI (cfiCond64) DPH0 load(1, XDATA, add(CFA_XSP16, literal(-1)))
        CFI (cfiCond64) CFA_SP SP+0
        CFI (cfiCond64) CFA_XSP16 add(XSP16, 34)
        CFI Block cfiCond65 Using cfiCommon0
        CFI (cfiCond65) NoFunction
        CFI (cfiCond65) Conditional ??CrossCallReturnLabel_16
        CFI (cfiCond65) R6 load(1, XDATA, add(CFA_XSP16, literal(-22)))
        CFI (cfiCond65) VB load(1, XDATA, add(CFA_XSP16, literal(-21)))
        CFI (cfiCond65) V0 load(1, XDATA, add(CFA_XSP16, literal(-20)))
        CFI (cfiCond65) V1 load(1, XDATA, add(CFA_XSP16, literal(-19)))
        CFI (cfiCond65) V2 load(1, XDATA, add(CFA_XSP16, literal(-18)))
        CFI (cfiCond65) V3 load(1, XDATA, add(CFA_XSP16, literal(-17)))
        CFI (cfiCond65) V4 load(1, XDATA, add(CFA_XSP16, literal(-16)))
        CFI (cfiCond65) V5 load(1, XDATA, add(CFA_XSP16, literal(-15)))
        CFI (cfiCond65) V6 load(1, XDATA, add(CFA_XSP16, literal(-14)))
        CFI (cfiCond65) V7 load(1, XDATA, add(CFA_XSP16, literal(-13)))
        CFI (cfiCond65) V8 load(1, XDATA, add(CFA_XSP16, literal(-12)))
        CFI (cfiCond65) V9 load(1, XDATA, add(CFA_XSP16, literal(-11)))
        CFI (cfiCond65) V10 load(1, XDATA, add(CFA_XSP16, literal(-10)))
        CFI (cfiCond65) V11 load(1, XDATA, add(CFA_XSP16, literal(-9)))
        CFI (cfiCond65) V12 load(1, XDATA, add(CFA_XSP16, literal(-8)))
        CFI (cfiCond65) V13 load(1, XDATA, add(CFA_XSP16, literal(-7)))
        CFI (cfiCond65) R7 load(1, XDATA, add(CFA_XSP16, literal(-6)))
        CFI (cfiCond65) ?RET_LOW load(1, XDATA, add(CFA_XSP16, literal(-5)))
        CFI (cfiCond65) ?RET_HIGH load(1, XDATA, add(CFA_XSP16, literal(-4)))
        CFI (cfiCond65) ?BRET_EXT load(1, XDATA, add(CFA_XSP16, literal(-3)))
        CFI (cfiCond65) DPL0 load(1, XDATA, add(CFA_XSP16, literal(-2)))
        CFI (cfiCond65) DPH0 load(1, XDATA, add(CFA_XSP16, literal(-1)))
        CFI (cfiCond65) CFA_SP SP+0
        CFI (cfiCond65) CFA_XSP16 add(XSP16, 34)
        CFI Block cfiCond66 Using cfiCommon0
        CFI (cfiCond66) NoFunction
        CFI (cfiCond66) Conditional ??CrossCallReturnLabel_17
        CFI (cfiCond66) R6 load(1, XDATA, add(CFA_XSP16, literal(-22)))
        CFI (cfiCond66) VB load(1, XDATA, add(CFA_XSP16, literal(-21)))
        CFI (cfiCond66) V0 load(1, XDATA, add(CFA_XSP16, literal(-20)))
        CFI (cfiCond66) V1 load(1, XDATA, add(CFA_XSP16, literal(-19)))
        CFI (cfiCond66) V2 load(1, XDATA, add(CFA_XSP16, literal(-18)))
        CFI (cfiCond66) V3 load(1, XDATA, add(CFA_XSP16, literal(-17)))
        CFI (cfiCond66) V4 load(1, XDATA, add(CFA_XSP16, literal(-16)))
        CFI (cfiCond66) V5 load(1, XDATA, add(CFA_XSP16, literal(-15)))
        CFI (cfiCond66) V6 load(1, XDATA, add(CFA_XSP16, literal(-14)))
        CFI (cfiCond66) V7 load(1, XDATA, add(CFA_XSP16, literal(-13)))
        CFI (cfiCond66) V8 load(1, XDATA, add(CFA_XSP16, literal(-12)))
        CFI (cfiCond66) V9 load(1, XDATA, add(CFA_XSP16, literal(-11)))
        CFI (cfiCond66) V10 load(1, XDATA, add(CFA_XSP16, literal(-10)))
        CFI (cfiCond66) V11 load(1, XDATA, add(CFA_XSP16, literal(-9)))
        CFI (cfiCond66) V12 load(1, XDATA, add(CFA_XSP16, literal(-8)))
        CFI (cfiCond66) V13 load(1, XDATA, add(CFA_XSP16, literal(-7)))
        CFI (cfiCond66) R7 load(1, XDATA, add(CFA_XSP16, literal(-6)))
        CFI (cfiCond66) ?RET_LOW load(1, XDATA, add(CFA_XSP16, literal(-5)))
        CFI (cfiCond66) ?RET_HIGH load(1, XDATA, add(CFA_XSP16, literal(-4)))
        CFI (cfiCond66) ?BRET_EXT load(1, XDATA, add(CFA_XSP16, literal(-3)))
        CFI (cfiCond66) DPL0 load(1, XDATA, add(CFA_XSP16, literal(-2)))
        CFI (cfiCond66) DPH0 load(1, XDATA, add(CFA_XSP16, literal(-1)))
        CFI (cfiCond66) CFA_SP SP+0
        CFI (cfiCond66) CFA_XSP16 add(XSP16, 34)
        CFI Block cfiPicker67 Using cfiCommon1
        CFI (cfiPicker67) NoFunction
        CFI (cfiPicker67) Picker
        LCALL   ??Single_ReadI2C?relay
        MOV     A,R1
        RET
        CFI EndBlock cfiCond55
        CFI EndBlock cfiCond56
        CFI EndBlock cfiCond57
        CFI EndBlock cfiCond58
        CFI EndBlock cfiCond59
        CFI EndBlock cfiCond60
        CFI EndBlock cfiCond61
        CFI EndBlock cfiCond62
        CFI EndBlock cfiCond63
        CFI EndBlock cfiCond64
        CFI EndBlock cfiCond65
        CFI EndBlock cfiCond66
        CFI EndBlock cfiPicker67
//  282 

        RSEG BANKED_CODE:CODE:NOROOT(0)
//  283 void type_change(int num)
type_change:
        CFI Block cfiBlock68 Using cfiCommon0
        CFI Function type_change
        CODE
//  284 {
        FUNCALL type_change, HalUARTWrite
        LOCFRAME ISTACK, 0, STACK
        LOCFRAME PSTACK, 0, STACK
        LOCFRAME XSTACK, 14, STACK
        LOCFRAME IOVERLAY, 0, STATIC
        LOCFRAME DOVERLAY, 0, STATIC
        ARGFRAME ISTACK, 0, STACK
        ARGFRAME PSTACK, 0, STACK
        ARGFRAME XSTACK, 14, STACK
        ARGFRAME IOVERLAY, 0, STATIC
        ARGFRAME DOVERLAY, 0, STATIC
        FUNCALL type_change, HalUARTWrite
        LOCFRAME ISTACK, 0, STACK
        LOCFRAME PSTACK, 0, STACK
        LOCFRAME XSTACK, 14, STACK
        LOCFRAME IOVERLAY, 0, STATIC
        LOCFRAME DOVERLAY, 0, STATIC
        ARGFRAME ISTACK, 0, STACK
        ARGFRAME PSTACK, 0, STACK
        ARGFRAME XSTACK, 14, STACK
        ARGFRAME IOVERLAY, 0, STATIC
        ARGFRAME DOVERLAY, 0, STATIC
        FUNCALL type_change, HalUARTWrite
        LOCFRAME ISTACK, 0, STACK
        LOCFRAME PSTACK, 0, STACK
        LOCFRAME XSTACK, 14, STACK
        LOCFRAME IOVERLAY, 0, STATIC
        LOCFRAME DOVERLAY, 0, STATIC
        ARGFRAME ISTACK, 0, STACK
        ARGFRAME PSTACK, 0, STACK
        ARGFRAME XSTACK, 14, STACK
        ARGFRAME IOVERLAY, 0, STATIC
        ARGFRAME DOVERLAY, 0, STATIC
        MOV     A,#-0x9
        LCALL   ?BANKED_ENTER_XDATA
        CFI DPH0 load(1, XDATA, add(CFA_XSP16, literal(-1)))
        CFI DPL0 load(1, XDATA, add(CFA_XSP16, literal(-2)))
        CFI ?BRET_EXT load(1, XDATA, add(CFA_XSP16, literal(-3)))
        CFI ?RET_HIGH load(1, XDATA, add(CFA_XSP16, literal(-4)))
        CFI ?RET_LOW load(1, XDATA, add(CFA_XSP16, literal(-5)))
        CFI R7 load(1, XDATA, add(CFA_XSP16, literal(-6)))
        CFI V0 load(1, XDATA, add(CFA_XSP16, literal(-7)))
        CFI VB load(1, XDATA, add(CFA_XSP16, literal(-8)))
        CFI R6 load(1, XDATA, add(CFA_XSP16, literal(-9)))
        CFI CFA_SP SP+0
        CFI CFA_XSP16 add(XSP16, 9)
        ; Saved register size: 9
        ; Auto size: 5
        MOV     A,#-0x5
        LCALL   ?ALLOC_XSTACK8
        CFI CFA_XSP16 add(XSP16, 14)
        MOV     A,R2
        MOV     R6,A
        MOV     A,R3
        MOV     R7,A
//  285   uint8 temp[5];
//  286   if(num<0)
        CLR     C
        SUBB    A,#0x0
        MOV     C,0xD0 /* PSW */.2
        XRL     A,PSW
        RLC     A
        MOV     R4,#0x1
        MOV     R5,#0x0
        JNC     ??type_change_0
//  287   {
//  288     HalUARTWrite(0,"-",1);
        ; Setup parameters for call to function HalUARTWrite
        MOV     R2,#`?<Constant "-">` & 0xff
        MOV     R3,#(`?<Constant "-">` >> 8) & 0xff
        MOV     R1,#0x0
        LCALL   ??HalUARTWrite?relay
//  289     num = -num;
        CLR     C
        CLR     A
        SUBB    A,R6
        MOV     R0,A
        CLR     A
        SUBB    A,R7
        MOV     R1,A
        MOV     A,R0
        MOV     R6,A
        MOV     A,R1
        MOV     R7,A
        SJMP    ??type_change_1
//  290   }
//  291   else
//  292   {
//  293     HalUARTWrite(0,"+",1);
??type_change_0:
        ; Setup parameters for call to function HalUARTWrite
        MOV     R2,#`?<Constant "+">` & 0xff
        MOV     R3,#(`?<Constant "+">` >> 8) & 0xff
        MOV     R1,#0x0
        LCALL   ??HalUARTWrite?relay
//  294   }
//  295   temp[0] = num/10000+0x30;
??type_change_1:
        MOV     A,R6
        MOV     R0,A
        MOV     A,R7
        MOV     R1,A
        MOV     R2,#0x10
        MOV     R3,#0x27
        LCALL   ?S_DIV_MOD
        MOV     A,R0
        ADD     A,#0x30
        MOV     DPL,?XSP + 0
        MOV     DPH,?XSP + 1
        LCALL   ?Subroutine6 & 0xFFFF
//  296   temp[1] = num%10000/1000+0x30;
??CrossCallReturnLabel_18:
        MOV     R2,#0x10
        MOV     R3,#0x27
        LCALL   ?S_DIV_MOD
        MOV     A,R2
        MOV     R0,A
        MOV     A,R3
        MOV     R1,A
        MOV     R2,#-0x18
        MOV     R3,#0x3
        LCALL   ?S_DIV_MOD
        MOV     A,R0
        ADD     A,#0x30
        PUSH    A
        CFI CFA_SP SP+-1
        MOV     A,#0x1
        LCALL   ?XSTACK_DISP0_8
        POP     A
        CFI CFA_SP SP+0
        LCALL   ?Subroutine6 & 0xFFFF
//  297   temp[2] = num%1000/100+0x30;
??CrossCallReturnLabel_19:
        MOV     R2,#-0x18
        MOV     R3,#0x3
        LCALL   ?S_DIV_MOD
        MOV     A,R2
        MOV     R0,A
        MOV     A,R3
        MOV     R1,A
        MOV     R2,#0x64
        MOV     R3,#0x0
        LCALL   ?S_DIV_MOD
        MOV     A,R0
        ADD     A,#0x30
        PUSH    A
        CFI CFA_SP SP+-1
        MOV     A,#0x2
        LCALL   ?XSTACK_DISP0_8
        POP     A
        CFI CFA_SP SP+0
        LCALL   ?Subroutine6 & 0xFFFF
//  298   temp[3] = num%100/10+0x30;
??CrossCallReturnLabel_20:
        MOV     R2,#0x64
        MOV     R3,#0x0
        LCALL   ?S_DIV_MOD
        MOV     A,R2
        MOV     R0,A
        MOV     A,R3
        MOV     R1,A
        MOV     R2,#0xa
        MOV     R3,#0x0
        LCALL   ?S_DIV_MOD
        MOV     A,R0
        ADD     A,#0x30
        PUSH    A
        CFI CFA_SP SP+-1
        MOV     A,#0x3
        LCALL   ?XSTACK_DISP0_8
        POP     A
        CFI CFA_SP SP+0
        LCALL   ?Subroutine6 & 0xFFFF
//  299   temp[4] = num%10+0x30;
??CrossCallReturnLabel_21:
        MOV     R2,#0xa
        MOV     R3,#0x0
        LCALL   ?S_DIV_MOD
        MOV     A,R2
        ADD     A,#0x30
        PUSH    A
        CFI CFA_SP SP+-1
        MOV     A,#0x4
        LCALL   ?XSTACK_DISP0_8
        POP     A
        CFI CFA_SP SP+0
        MOVX    @DPTR,A
//  300   HalUARTWrite(0,&temp[0],5);
        ; Setup parameters for call to function HalUARTWrite
        MOV     R4,#0x5
        MOV     R5,#0x0
        MOV     DPL,?XSP + 0
        MOV     DPH,?XSP + 1
        MOV     R2,DPL
        MOV     R3,DPH
        MOV     R1,#0x0
        LCALL   ??HalUARTWrite?relay
//  301 }
        MOV     A,#0x5
        LCALL   ?DEALLOC_XSTACK8
        CFI CFA_XSP16 add(XSP16, 9)
        LJMP    ??Subroutine11_0 & 0xFFFF
        CFI EndBlock cfiBlock68

        RSEG BANKED_CODE:CODE:NOROOT(0)
?Subroutine6:
        CFI Block cfiCond69 Using cfiCommon0
        CFI NoFunction
        CFI Conditional ??CrossCallReturnLabel_18
        CFI R6 load(1, XDATA, add(CFA_XSP16, literal(-9)))
        CFI VB load(1, XDATA, add(CFA_XSP16, literal(-8)))
        CFI V0 load(1, XDATA, add(CFA_XSP16, literal(-7)))
        CFI R7 load(1, XDATA, add(CFA_XSP16, literal(-6)))
        CFI ?RET_LOW load(1, XDATA, add(CFA_XSP16, literal(-5)))
        CFI ?RET_HIGH load(1, XDATA, add(CFA_XSP16, literal(-4)))
        CFI ?BRET_EXT load(1, XDATA, add(CFA_XSP16, literal(-3)))
        CFI DPL0 load(1, XDATA, add(CFA_XSP16, literal(-2)))
        CFI DPH0 load(1, XDATA, add(CFA_XSP16, literal(-1)))
        CFI CFA_SP SP+0
        CFI CFA_XSP16 add(XSP16, 14)
        CFI Block cfiCond70 Using cfiCommon0
        CFI (cfiCond70) NoFunction
        CFI (cfiCond70) Conditional ??CrossCallReturnLabel_19
        CFI (cfiCond70) R6 load(1, XDATA, add(CFA_XSP16, literal(-9)))
        CFI (cfiCond70) VB load(1, XDATA, add(CFA_XSP16, literal(-8)))
        CFI (cfiCond70) V0 load(1, XDATA, add(CFA_XSP16, literal(-7)))
        CFI (cfiCond70) R7 load(1, XDATA, add(CFA_XSP16, literal(-6)))
        CFI (cfiCond70) ?RET_LOW load(1, XDATA, add(CFA_XSP16, literal(-5)))
        CFI (cfiCond70) ?RET_HIGH load(1, XDATA, add(CFA_XSP16, literal(-4)))
        CFI (cfiCond70) ?BRET_EXT load(1, XDATA, add(CFA_XSP16, literal(-3)))
        CFI (cfiCond70) DPL0 load(1, XDATA, add(CFA_XSP16, literal(-2)))
        CFI (cfiCond70) DPH0 load(1, XDATA, add(CFA_XSP16, literal(-1)))
        CFI (cfiCond70) CFA_SP SP+0
        CFI (cfiCond70) CFA_XSP16 add(XSP16, 14)
        CFI Block cfiCond71 Using cfiCommon0
        CFI (cfiCond71) NoFunction
        CFI (cfiCond71) Conditional ??CrossCallReturnLabel_20
        CFI (cfiCond71) R6 load(1, XDATA, add(CFA_XSP16, literal(-9)))
        CFI (cfiCond71) VB load(1, XDATA, add(CFA_XSP16, literal(-8)))
        CFI (cfiCond71) V0 load(1, XDATA, add(CFA_XSP16, literal(-7)))
        CFI (cfiCond71) R7 load(1, XDATA, add(CFA_XSP16, literal(-6)))
        CFI (cfiCond71) ?RET_LOW load(1, XDATA, add(CFA_XSP16, literal(-5)))
        CFI (cfiCond71) ?RET_HIGH load(1, XDATA, add(CFA_XSP16, literal(-4)))
        CFI (cfiCond71) ?BRET_EXT load(1, XDATA, add(CFA_XSP16, literal(-3)))
        CFI (cfiCond71) DPL0 load(1, XDATA, add(CFA_XSP16, literal(-2)))
        CFI (cfiCond71) DPH0 load(1, XDATA, add(CFA_XSP16, literal(-1)))
        CFI (cfiCond71) CFA_SP SP+0
        CFI (cfiCond71) CFA_XSP16 add(XSP16, 14)
        CFI Block cfiCond72 Using cfiCommon0
        CFI (cfiCond72) NoFunction
        CFI (cfiCond72) Conditional ??CrossCallReturnLabel_21
        CFI (cfiCond72) R6 load(1, XDATA, add(CFA_XSP16, literal(-9)))
        CFI (cfiCond72) VB load(1, XDATA, add(CFA_XSP16, literal(-8)))
        CFI (cfiCond72) V0 load(1, XDATA, add(CFA_XSP16, literal(-7)))
        CFI (cfiCond72) R7 load(1, XDATA, add(CFA_XSP16, literal(-6)))
        CFI (cfiCond72) ?RET_LOW load(1, XDATA, add(CFA_XSP16, literal(-5)))
        CFI (cfiCond72) ?RET_HIGH load(1, XDATA, add(CFA_XSP16, literal(-4)))
        CFI (cfiCond72) ?BRET_EXT load(1, XDATA, add(CFA_XSP16, literal(-3)))
        CFI (cfiCond72) DPL0 load(1, XDATA, add(CFA_XSP16, literal(-2)))
        CFI (cfiCond72) DPH0 load(1, XDATA, add(CFA_XSP16, literal(-1)))
        CFI (cfiCond72) CFA_SP SP+0
        CFI (cfiCond72) CFA_XSP16 add(XSP16, 14)
        CFI Block cfiPicker73 Using cfiCommon1
        CFI (cfiPicker73) NoFunction
        CFI (cfiPicker73) Picker
        MOVX    @DPTR,A
        MOV     A,R6
        MOV     R0,A
        MOV     A,R7
        MOV     R1,A
        RET
        CFI EndBlock cfiCond69
        CFI EndBlock cfiCond70
        CFI EndBlock cfiCond71
        CFI EndBlock cfiCond72
        CFI EndBlock cfiPicker73

        RSEG BANK_RELAYS:CODE:REORDER:NOROOT(0)
??ALLInit?relay:
        LCALL   ?BDISPATCH
        DATA
        DC24    ALLInit

        RSEG BANK_RELAYS:CODE:REORDER:NOROOT(0)
??delay_usec?relay:
        LCALL   ?BDISPATCH
        DATA
        DC24    delay_usec

        RSEG BANK_RELAYS:CODE:REORDER:NOROOT(0)
??WriteSDA_0?relay:
        LCALL   ?BDISPATCH
        DATA
        DC24    WriteSDA_0

        RSEG BANK_RELAYS:CODE:REORDER:NOROOT(0)
??WriteSDA_1?relay:
        LCALL   ?BDISPATCH
        DATA
        DC24    WriteSDA_1

        RSEG BANK_RELAYS:CODE:REORDER:NOROOT(0)
??WriteSCL_0?relay:
        LCALL   ?BDISPATCH
        DATA
        DC24    WriteSCL_0

        RSEG BANK_RELAYS:CODE:REORDER:NOROOT(0)
??WriteSCL_1?relay:
        LCALL   ?BDISPATCH
        DATA
        DC24    WriteSCL_1

        RSEG BANK_RELAYS:CODE:REORDER:NOROOT(0)
??ReadSDA?relay:
        LCALL   ?BDISPATCH
        DATA
        DC24    ReadSDA

        RSEG BANK_RELAYS:CODE:REORDER:NOROOT(0)
??Init_IO?relay:
        LCALL   ?BDISPATCH
        DATA
        DC24    Init_IO

        RSEG BANK_RELAYS:CODE:REORDER:NOROOT(0)
??I2C_Start?relay:
        LCALL   ?BDISPATCH
        DATA
        DC24    I2C_Start

        RSEG BANK_RELAYS:CODE:REORDER:NOROOT(0)
??I2C_Stop?relay:
        LCALL   ?BDISPATCH
        DATA
        DC24    I2C_Stop

        RSEG BANK_RELAYS:CODE:REORDER:NOROOT(0)
??I2C_SendACK?relay:
        LCALL   ?BDISPATCH
        DATA
        DC24    I2C_SendACK

        RSEG BANK_RELAYS:CODE:REORDER:NOROOT(0)
??I2C_RecvACK?relay:
        LCALL   ?BDISPATCH
        DATA
        DC24    I2C_RecvACK

        RSEG BANK_RELAYS:CODE:REORDER:NOROOT(0)
??I2C_SendByte?relay:
        LCALL   ?BDISPATCH
        DATA
        DC24    I2C_SendByte

        RSEG BANK_RELAYS:CODE:REORDER:NOROOT(0)
??I2C_RecvByte?relay:
        LCALL   ?BDISPATCH
        DATA
        DC24    I2C_RecvByte

        RSEG BANK_RELAYS:CODE:REORDER:NOROOT(0)
??Single_WriteI2C?relay:
        LCALL   ?BDISPATCH
        DATA
        DC24    Single_WriteI2C

        RSEG BANK_RELAYS:CODE:REORDER:NOROOT(0)
??Single_ReadI2C?relay:
        LCALL   ?BDISPATCH
        DATA
        DC24    Single_ReadI2C

        RSEG BANK_RELAYS:CODE:REORDER:NOROOT(0)
??InitMPU6050?relay:
        LCALL   ?BDISPATCH
        DATA
        DC24    InitMPU6050

        RSEG BANK_RELAYS:CODE:REORDER:NOROOT(0)
??Multiple_read_MPU6050?relay:
        LCALL   ?BDISPATCH
        DATA
        DC24    Multiple_read_MPU6050

        RSEG BANK_RELAYS:CODE:REORDER:NOROOT(0)
??type_change?relay:
        LCALL   ?BDISPATCH
        DATA
        DC24    type_change

        RSEG XDATA_ROM_C:CONST:REORDER:NOROOT(0)
        DATA8
`?<Constant "  ">`:
        DB "  "

        RSEG XDATA_ROM_C:CONST:REORDER:NOROOT(0)
        DATA16
`?<Constant "\\n">`:
        DB "\012"

        RSEG XDATA_ROM_C:CONST:REORDER:NOROOT(0)
        DATA16
`?<Constant "-">`:
        DB "-"

        RSEG XDATA_ROM_C:CONST:REORDER:NOROOT(0)
        DATA16
`?<Constant "+">`:
        DB "+"

        END
//  302 
// 
// 993 bytes in segment BANKED_CODE
// 114 bytes in segment BANK_RELAYS
//   4 bytes in segment SFR_AN
//   9 bytes in segment XDATA_ROM_C
//  12 bytes in segment XDATA_Z
// 
// 1 107 bytes of CODE  memory
//     9 bytes of CONST memory
//     0 bytes of DATA  memory (+ 4 bytes shared)
//    12 bytes of XDATA memory
//
//Errors: none
//Warnings: none
